

Microchip Technology PIC PRO Macro Assembler V1.41 build -162212810 
                                                                                               Tue Jun 20 14:47:01 2017

Microchip Technology Omniscient Code Generator v1.41 (PRO mode) build 201701250102
     1                           	processor	16F1574
     2                           	opt	pw 120
     3                           	opt	pm
     4                           	psect	idataCOMMON,global,class=CODE,delta=2
     5                           	psect	idataBANK0,global,class=CODE,delta=2
     6                           	psect	idataBANK1,global,class=CODE,delta=2
     7                           	psect	stringtext,global,class=STRCODE,delta=2
     8                           	psect	nvBANK0,global,class=BANK0,space=1,delta=1
     9                           	psect	cinit,global,class=CODE,merge=1,delta=2
    10                           	psect	bssCOMMON,global,class=COMMON,space=1,delta=1
    11                           	psect	dataCOMMON,global,class=COMMON,space=1,delta=1
    12                           	psect	bssBANK0,global,class=BANK0,space=1,delta=1
    13                           	psect	dataBANK0,global,class=BANK0,space=1,delta=1
    14                           	psect	bssBANK1,global,class=BANK1,space=1,delta=1
    15                           	psect	dataBANK1,global,class=BANK1,space=1,delta=1
    16                           	psect	inittext,global,class=CODE,delta=2
    17                           	psect	clrtext,global,class=CODE,delta=2
    18                           	psect	cstackCOMMON,global,class=COMMON,space=1,delta=1
    19                           	psect	cstackBANK0,global,class=BANK0,space=1,delta=1
    20                           	psect	intentry,global,class=CODE,delta=2
    21                           	psect	text6,local,class=CODE,merge=1,delta=2
    22                           	psect	text7,local,class=CODE,merge=1,delta=2
    23                           	psect	swtext1,local,class=CONST,delta=2
    24                           	psect	pa_nodes0,global,class=CODE,delta=2
    25                           	dabs	1,0x320,16
    26                           	dabs	1,0x2A0,80
    27                           	dabs	1,0x220,80
    28                           	dabs	1,0x1B9,55
    29                           	dabs	1,0x2109,0,_PD
    30                           	dabs	1,0x7E,2
    31  0000                     
    32                           ; Version 1.41
    33                           ; Generated 25/01/2017 GMT
    34                           ; 
    35                           ; Copyright © 2017, Microchip Technology Inc. and its subsidiaries ("Microchip")
    36                           ; All rights reserved.
    37                           ; 
    38                           ; This software is developed by Microchip Technology Inc. and its subsidiaries ("Microch
      +                          ip").
    39                           ; 
    40                           ; Redistribution and use in source and binary forms, with or without modification, are
    41                           ; permitted provided that the following conditions are met:
    42                           ; 
    43                           ;     1. Redistributions of source code must retain the above copyright notice, this lis
      +                          t of
    44                           ;        conditions and the following disclaimer.
    45                           ; 
    46                           ;     2. Redistributions in binary form must reproduce the above copyright notice, this 
      +                          list
    47                           ;        of conditions and the following disclaimer in the documentation and/or other
    48                           ;        materials provided with the distribution.
    49                           ; 
    50                           ;     3. Microchip's name may not be used to endorse or promote products derived from th
      +                          is
    51                           ;        software without specific prior written permission.
    52                           ; 
    53                           ; THIS SOFTWARE IS PROVIDED BY MICROCHIP "AS IS" AND ANY EXPRESS OR IMPLIED WARRANTIES,
    54                           ; INCLUDING, BUT NOT LIMITED TO, THE IMPLIED WARRANTIES OF MERCHANTABILITY AND FITNESS F
      +                          OR
    55                           ; PURPOSE ARE DISCLAIMED.  IN NO EVENT SHALL MICROCHIP BE LIABLE FOR ANY DIRECT, INDIREC
      +                          T,
    56                           ; INCIDENTAL, SPECIAL, EXEMPLARY, OR CONSEQUENTIAL DAMAGES (INCLUDING BUT NOT LIMITED TO
    57                           ; PROCUREMENT OF SUBSTITUTE GOODS OR SERVICES; LOSS OF USE, DATA OR PROFITS; OR BUSINESS
    58                           ; INTERRUPTION) HOWSOEVER CAUSED AND ON ANY THEORY OF LIABILITY, WHETHER IN CONTRACT, ST
      +                          RICT
    59                           ; LIABILITY, OR TORT (INCLUDING NEGLIGENCE OR OTHERWISE) ARISING IN ANY WAY OUT OF THE U
      +                          SE OF
    60                           ; THIS SOFTWARE, EVEN IF ADVISED OF THE POSSIBILITY OF SUCH DAMAGE.
    61                           ; 
    62                           ; 
    63                           ; Code-generator required, PIC16F1574 Definitions
    64                           ; 
    65                           ; SFR Addresses
    66  0000                     	;# 
    67  0001                     	;# 
    68  0002                     	;# 
    69  0003                     	;# 
    70  0004                     	;# 
    71  0005                     	;# 
    72  0006                     	;# 
    73  0007                     	;# 
    74  0008                     	;# 
    75  0009                     	;# 
    76  000A                     	;# 
    77  000B                     	;# 
    78  000C                     	;# 
    79  000E                     	;# 
    80  0011                     	;# 
    81  0012                     	;# 
    82  0013                     	;# 
    83  0015                     	;# 
    84  0016                     	;# 
    85  0016                     	;# 
    86  0017                     	;# 
    87  0018                     	;# 
    88  0019                     	;# 
    89  001A                     	;# 
    90  001B                     	;# 
    91  001C                     	;# 
    92  008C                     	;# 
    93  008E                     	;# 
    94  0091                     	;# 
    95  0092                     	;# 
    96  0093                     	;# 
    97  0095                     	;# 
    98  0096                     	;# 
    99  0097                     	;# 
   100  0098                     	;# 
   101  0099                     	;# 
   102  009A                     	;# 
   103  009B                     	;# 
   104  009B                     	;# 
   105  009C                     	;# 
   106  009D                     	;# 
   107  009E                     	;# 
   108  009F                     	;# 
   109  010C                     	;# 
   110  010E                     	;# 
   111  0111                     	;# 
   112  0112                     	;# 
   113  0113                     	;# 
   114  0114                     	;# 
   115  0115                     	;# 
   116  0116                     	;# 
   117  0117                     	;# 
   118  0118                     	;# 
   119  0119                     	;# 
   120  018C                     	;# 
   121  018E                     	;# 
   122  0191                     	;# 
   123  0191                     	;# 
   124  0192                     	;# 
   125  0193                     	;# 
   126  0193                     	;# 
   127  0194                     	;# 
   128  0195                     	;# 
   129  0196                     	;# 
   130  0197                     	;# 
   131  0199                     	;# 
   132  019A                     	;# 
   133  019B                     	;# 
   134  019B                     	;# 
   135  019C                     	;# 
   136  019D                     	;# 
   137  019E                     	;# 
   138  019F                     	;# 
   139  020C                     	;# 
   140  020E                     	;# 
   141  028C                     	;# 
   142  028E                     	;# 
   143  030C                     	;# 
   144  030E                     	;# 
   145  038C                     	;# 
   146  038E                     	;# 
   147  0391                     	;# 
   148  0392                     	;# 
   149  0393                     	;# 
   150  0397                     	;# 
   151  0398                     	;# 
   152  0399                     	;# 
   153  0691                     	;# 
   154  0692                     	;# 
   155  0693                     	;# 
   156  0694                     	;# 
   157  0695                     	;# 
   158  0D8E                     	;# 
   159  0D8F                     	;# 
   160  0D90                     	;# 
   161  0D91                     	;# 
   162  0D91                     	;# 
   163  0D92                     	;# 
   164  0D93                     	;# 
   165  0D93                     	;# 
   166  0D94                     	;# 
   167  0D95                     	;# 
   168  0D95                     	;# 
   169  0D96                     	;# 
   170  0D97                     	;# 
   171  0D97                     	;# 
   172  0D98                     	;# 
   173  0D99                     	;# 
   174  0D99                     	;# 
   175  0D9A                     	;# 
   176  0D9B                     	;# 
   177  0D9C                     	;# 
   178  0D9C                     	;# 
   179  0D9D                     	;# 
   180  0D9D                     	;# 
   181  0D9E                     	;# 
   182  0D9F                     	;# 
   183  0DA0                     	;# 
   184  0DA1                     	;# 
   185  0DA1                     	;# 
   186  0DA2                     	;# 
   187  0DA3                     	;# 
   188  0DA3                     	;# 
   189  0DA4                     	;# 
   190  0DA5                     	;# 
   191  0DA5                     	;# 
   192  0DA6                     	;# 
   193  0DA7                     	;# 
   194  0DA7                     	;# 
   195  0DA8                     	;# 
   196  0DA9                     	;# 
   197  0DA9                     	;# 
   198  0DAA                     	;# 
   199  0DAB                     	;# 
   200  0DAC                     	;# 
   201  0DAC                     	;# 
   202  0DAD                     	;# 
   203  0DAD                     	;# 
   204  0DAE                     	;# 
   205  0DAF                     	;# 
   206  0DB0                     	;# 
   207  0DB1                     	;# 
   208  0DB1                     	;# 
   209  0DB2                     	;# 
   210  0DB3                     	;# 
   211  0DB3                     	;# 
   212  0DB4                     	;# 
   213  0DB5                     	;# 
   214  0DB5                     	;# 
   215  0DB6                     	;# 
   216  0DB7                     	;# 
   217  0DB7                     	;# 
   218  0DB8                     	;# 
   219  0DB9                     	;# 
   220  0DB9                     	;# 
   221  0DBA                     	;# 
   222  0DBB                     	;# 
   223  0DBC                     	;# 
   224  0DBC                     	;# 
   225  0DBD                     	;# 
   226  0DBD                     	;# 
   227  0DBE                     	;# 
   228  0DBF                     	;# 
   229  0DC0                     	;# 
   230  0DC1                     	;# 
   231  0DC1                     	;# 
   232  0DC2                     	;# 
   233  0DC3                     	;# 
   234  0DC3                     	;# 
   235  0DC4                     	;# 
   236  0DC5                     	;# 
   237  0DC5                     	;# 
   238  0DC6                     	;# 
   239  0DC7                     	;# 
   240  0DC7                     	;# 
   241  0DC8                     	;# 
   242  0DC9                     	;# 
   243  0DC9                     	;# 
   244  0DCA                     	;# 
   245  0DCB                     	;# 
   246  0DCC                     	;# 
   247  0DCC                     	;# 
   248  0DCD                     	;# 
   249  0DCD                     	;# 
   250  0DCE                     	;# 
   251  0DCF                     	;# 
   252  0DD0                     	;# 
   253  0E0F                     	;# 
   254  0E10                     	;# 
   255  0E11                     	;# 
   256  0E12                     	;# 
   257  0E13                     	;# 
   258  0E14                     	;# 
   259  0E15                     	;# 
   260  0E16                     	;# 
   261  0E17                     	;# 
   262  0E90                     	;# 
   263  0E91                     	;# 
   264  0E92                     	;# 
   265  0E94                     	;# 
   266  0E95                     	;# 
   267  0EA0                     	;# 
   268  0EA1                     	;# 
   269  0EA2                     	;# 
   270  0EA3                     	;# 
   271  0EA4                     	;# 
   272  0EA5                     	;# 
   273  0FE4                     	;# 
   274  0FE5                     	;# 
   275  0FE6                     	;# 
   276  0FE7                     	;# 
   277  0FE8                     	;# 
   278  0FE8                     	;# 
   279  0FE9                     	;# 
   280  0FEA                     	;# 
   281  0FEA                     	;# 
   282  0FEB                     	;# 
   283  0FED                     	;# 
   284  0FEE                     	;# 
   285  0FEE                     	;# 
   286  0FEF                     	;# 
   287  0000                     	;# 
   288  0001                     	;# 
   289  0002                     	;# 
   290  0003                     	;# 
   291  0004                     	;# 
   292  0005                     	;# 
   293  0006                     	;# 
   294  0007                     	;# 
   295  0008                     	;# 
   296  0009                     	;# 
   297  000A                     	;# 
   298  000B                     	;# 
   299  000C                     	;# 
   300  000E                     	;# 
   301  0011                     	;# 
   302  0012                     	;# 
   303  0013                     	;# 
   304  0015                     	;# 
   305  0016                     	;# 
   306  0016                     	;# 
   307  0017                     	;# 
   308  0018                     	;# 
   309  0019                     	;# 
   310  001A                     	;# 
   311  001B                     	;# 
   312  001C                     	;# 
   313  008C                     	;# 
   314  008E                     	;# 
   315  0091                     	;# 
   316  0092                     	;# 
   317  0093                     	;# 
   318  0095                     	;# 
   319  0096                     	;# 
   320  0097                     	;# 
   321  0098                     	;# 
   322  0099                     	;# 
   323  009A                     	;# 
   324  009B                     	;# 
   325  009B                     	;# 
   326  009C                     	;# 
   327  009D                     	;# 
   328  009E                     	;# 
   329  009F                     	;# 
   330  010C                     	;# 
   331  010E                     	;# 
   332  0111                     	;# 
   333  0112                     	;# 
   334  0113                     	;# 
   335  0114                     	;# 
   336  0115                     	;# 
   337  0116                     	;# 
   338  0117                     	;# 
   339  0118                     	;# 
   340  0119                     	;# 
   341  018C                     	;# 
   342  018E                     	;# 
   343  0191                     	;# 
   344  0191                     	;# 
   345  0192                     	;# 
   346  0193                     	;# 
   347  0193                     	;# 
   348  0194                     	;# 
   349  0195                     	;# 
   350  0196                     	;# 
   351  0197                     	;# 
   352  0199                     	;# 
   353  019A                     	;# 
   354  019B                     	;# 
   355  019B                     	;# 
   356  019C                     	;# 
   357  019D                     	;# 
   358  019E                     	;# 
   359  019F                     	;# 
   360  020C                     	;# 
   361  020E                     	;# 
   362  028C                     	;# 
   363  028E                     	;# 
   364  030C                     	;# 
   365  030E                     	;# 
   366  038C                     	;# 
   367  038E                     	;# 
   368  0391                     	;# 
   369  0392                     	;# 
   370  0393                     	;# 
   371  0397                     	;# 
   372  0398                     	;# 
   373  0399                     	;# 
   374  0691                     	;# 
   375  0692                     	;# 
   376  0693                     	;# 
   377  0694                     	;# 
   378  0695                     	;# 
   379  0D8E                     	;# 
   380  0D8F                     	;# 
   381  0D90                     	;# 
   382  0D91                     	;# 
   383  0D91                     	;# 
   384  0D92                     	;# 
   385  0D93                     	;# 
   386  0D93                     	;# 
   387  0D94                     	;# 
   388  0D95                     	;# 
   389  0D95                     	;# 
   390  0D96                     	;# 
   391  0D97                     	;# 
   392  0D97                     	;# 
   393  0D98                     	;# 
   394  0D99                     	;# 
   395  0D99                     	;# 
   396  0D9A                     	;# 
   397  0D9B                     	;# 
   398  0D9C                     	;# 
   399  0D9C                     	;# 
   400  0D9D                     	;# 
   401  0D9D                     	;# 
   402  0D9E                     	;# 
   403  0D9F                     	;# 
   404  0DA0                     	;# 
   405  0DA1                     	;# 
   406  0DA1                     	;# 
   407  0DA2                     	;# 
   408  0DA3                     	;# 
   409  0DA3                     	;# 
   410  0DA4                     	;# 
   411  0DA5                     	;# 
   412  0DA5                     	;# 
   413  0DA6                     	;# 
   414  0DA7                     	;# 
   415  0DA7                     	;# 
   416  0DA8                     	;# 
   417  0DA9                     	;# 
   418  0DA9                     	;# 
   419  0DAA                     	;# 
   420  0DAB                     	;# 
   421  0DAC                     	;# 
   422  0DAC                     	;# 
   423  0DAD                     	;# 
   424  0DAD                     	;# 
   425  0DAE                     	;# 
   426  0DAF                     	;# 
   427  0DB0                     	;# 
   428  0DB1                     	;# 
   429  0DB1                     	;# 
   430  0DB2                     	;# 
   431  0DB3                     	;# 
   432  0DB3                     	;# 
   433  0DB4                     	;# 
   434  0DB5                     	;# 
   435  0DB5                     	;# 
   436  0DB6                     	;# 
   437  0DB7                     	;# 
   438  0DB7                     	;# 
   439  0DB8                     	;# 
   440  0DB9                     	;# 
   441  0DB9                     	;# 
   442  0DBA                     	;# 
   443  0DBB                     	;# 
   444  0DBC                     	;# 
   445  0DBC                     	;# 
   446  0DBD                     	;# 
   447  0DBD                     	;# 
   448  0DBE                     	;# 
   449  0DBF                     	;# 
   450  0DC0                     	;# 
   451  0DC1                     	;# 
   452  0DC1                     	;# 
   453  0DC2                     	;# 
   454  0DC3                     	;# 
   455  0DC3                     	;# 
   456  0DC4                     	;# 
   457  0DC5                     	;# 
   458  0DC5                     	;# 
   459  0DC6                     	;# 
   460  0DC7                     	;# 
   461  0DC7                     	;# 
   462  0DC8                     	;# 
   463  0DC9                     	;# 
   464  0DC9                     	;# 
   465  0DCA                     	;# 
   466  0DCB                     	;# 
   467  0DCC                     	;# 
   468  0DCC                     	;# 
   469  0DCD                     	;# 
   470  0DCD                     	;# 
   471  0DCE                     	;# 
   472  0DCF                     	;# 
   473  0DD0                     	;# 
   474  0E0F                     	;# 
   475  0E10                     	;# 
   476  0E11                     	;# 
   477  0E12                     	;# 
   478  0E13                     	;# 
   479  0E14                     	;# 
   480  0E15                     	;# 
   481  0E16                     	;# 
   482  0E17                     	;# 
   483  0E90                     	;# 
   484  0E91                     	;# 
   485  0E92                     	;# 
   486  0E94                     	;# 
   487  0E95                     	;# 
   488  0EA0                     	;# 
   489  0EA1                     	;# 
   490  0EA2                     	;# 
   491  0EA3                     	;# 
   492  0EA4                     	;# 
   493  0EA5                     	;# 
   494  0FE4                     	;# 
   495  0FE5                     	;# 
   496  0FE6                     	;# 
   497  0FE7                     	;# 
   498  0FE8                     	;# 
   499  0FE8                     	;# 
   500  0FE9                     	;# 
   501  0FEA                     	;# 
   502  0FEA                     	;# 
   503  0FEB                     	;# 
   504  0FED                     	;# 
   505  0FEE                     	;# 
   506  0FEE                     	;# 
   507  0FEF                     	;# 
   508  0000                     	;# 
   509  0001                     	;# 
   510  0002                     	;# 
   511  0003                     	;# 
   512  0004                     	;# 
   513  0005                     	;# 
   514  0006                     	;# 
   515  0007                     	;# 
   516  0008                     	;# 
   517  0009                     	;# 
   518  000A                     	;# 
   519  000B                     	;# 
   520  000C                     	;# 
   521  000E                     	;# 
   522  0011                     	;# 
   523  0012                     	;# 
   524  0013                     	;# 
   525  0015                     	;# 
   526  0016                     	;# 
   527  0016                     	;# 
   528  0017                     	;# 
   529  0018                     	;# 
   530  0019                     	;# 
   531  001A                     	;# 
   532  001B                     	;# 
   533  001C                     	;# 
   534  008C                     	;# 
   535  008E                     	;# 
   536  0091                     	;# 
   537  0092                     	;# 
   538  0093                     	;# 
   539  0095                     	;# 
   540  0096                     	;# 
   541  0097                     	;# 
   542  0098                     	;# 
   543  0099                     	;# 
   544  009A                     	;# 
   545  009B                     	;# 
   546  009B                     	;# 
   547  009C                     	;# 
   548  009D                     	;# 
   549  009E                     	;# 
   550  009F                     	;# 
   551  010C                     	;# 
   552  010E                     	;# 
   553  0111                     	;# 
   554  0112                     	;# 
   555  0113                     	;# 
   556  0114                     	;# 
   557  0115                     	;# 
   558  0116                     	;# 
   559  0117                     	;# 
   560  0118                     	;# 
   561  0119                     	;# 
   562  018C                     	;# 
   563  018E                     	;# 
   564  0191                     	;# 
   565  0191                     	;# 
   566  0192                     	;# 
   567  0193                     	;# 
   568  0193                     	;# 
   569  0194                     	;# 
   570  0195                     	;# 
   571  0196                     	;# 
   572  0197                     	;# 
   573  0199                     	;# 
   574  019A                     	;# 
   575  019B                     	;# 
   576  019B                     	;# 
   577  019C                     	;# 
   578  019D                     	;# 
   579  019E                     	;# 
   580  019F                     	;# 
   581  020C                     	;# 
   582  020E                     	;# 
   583  028C                     	;# 
   584  028E                     	;# 
   585  030C                     	;# 
   586  030E                     	;# 
   587  038C                     	;# 
   588  038E                     	;# 
   589  0391                     	;# 
   590  0392                     	;# 
   591  0393                     	;# 
   592  0397                     	;# 
   593  0398                     	;# 
   594  0399                     	;# 
   595  0691                     	;# 
   596  0692                     	;# 
   597  0693                     	;# 
   598  0694                     	;# 
   599  0695                     	;# 
   600  0D8E                     	;# 
   601  0D8F                     	;# 
   602  0D90                     	;# 
   603  0D91                     	;# 
   604  0D91                     	;# 
   605  0D92                     	;# 
   606  0D93                     	;# 
   607  0D93                     	;# 
   608  0D94                     	;# 
   609  0D95                     	;# 
   610  0D95                     	;# 
   611  0D96                     	;# 
   612  0D97                     	;# 
   613  0D97                     	;# 
   614  0D98                     	;# 
   615  0D99                     	;# 
   616  0D99                     	;# 
   617  0D9A                     	;# 
   618  0D9B                     	;# 
   619  0D9C                     	;# 
   620  0D9C                     	;# 
   621  0D9D                     	;# 
   622  0D9D                     	;# 
   623  0D9E                     	;# 
   624  0D9F                     	;# 
   625  0DA0                     	;# 
   626  0DA1                     	;# 
   627  0DA1                     	;# 
   628  0DA2                     	;# 
   629  0DA3                     	;# 
   630  0DA3                     	;# 
   631  0DA4                     	;# 
   632  0DA5                     	;# 
   633  0DA5                     	;# 
   634  0DA6                     	;# 
   635  0DA7                     	;# 
   636  0DA7                     	;# 
   637  0DA8                     	;# 
   638  0DA9                     	;# 
   639  0DA9                     	;# 
   640  0DAA                     	;# 
   641  0DAB                     	;# 
   642  0DAC                     	;# 
   643  0DAC                     	;# 
   644  0DAD                     	;# 
   645  0DAD                     	;# 
   646  0DAE                     	;# 
   647  0DAF                     	;# 
   648  0DB0                     	;# 
   649  0DB1                     	;# 
   650  0DB1                     	;# 
   651  0DB2                     	;# 
   652  0DB3                     	;# 
   653  0DB3                     	;# 
   654  0DB4                     	;# 
   655  0DB5                     	;# 
   656  0DB5                     	;# 
   657  0DB6                     	;# 
   658  0DB7                     	;# 
   659  0DB7                     	;# 
   660  0DB8                     	;# 
   661  0DB9                     	;# 
   662  0DB9                     	;# 
   663  0DBA                     	;# 
   664  0DBB                     	;# 
   665  0DBC                     	;# 
   666  0DBC                     	;# 
   667  0DBD                     	;# 
   668  0DBD                     	;# 
   669  0DBE                     	;# 
   670  0DBF                     	;# 
   671  0DC0                     	;# 
   672  0DC1                     	;# 
   673  0DC1                     	;# 
   674  0DC2                     	;# 
   675  0DC3                     	;# 
   676  0DC3                     	;# 
   677  0DC4                     	;# 
   678  0DC5                     	;# 
   679  0DC5                     	;# 
   680  0DC6                     	;# 
   681  0DC7                     	;# 
   682  0DC7                     	;# 
   683  0DC8                     	;# 
   684  0DC9                     	;# 
   685  0DC9                     	;# 
   686  0DCA                     	;# 
   687  0DCB                     	;# 
   688  0DCC                     	;# 
   689  0DCC                     	;# 
   690  0DCD                     	;# 
   691  0DCD                     	;# 
   692  0DCE                     	;# 
   693  0DCF                     	;# 
   694  0DD0                     	;# 
   695  0E0F                     	;# 
   696  0E10                     	;# 
   697  0E11                     	;# 
   698  0E12                     	;# 
   699  0E13                     	;# 
   700  0E14                     	;# 
   701  0E15                     	;# 
   702  0E16                     	;# 
   703  0E17                     	;# 
   704  0E90                     	;# 
   705  0E91                     	;# 
   706  0E92                     	;# 
   707  0E94                     	;# 
   708  0E95                     	;# 
   709  0EA0                     	;# 
   710  0EA1                     	;# 
   711  0EA2                     	;# 
   712  0EA3                     	;# 
   713  0EA4                     	;# 
   714  0EA5                     	;# 
   715  0FE4                     	;# 
   716  0FE5                     	;# 
   717  0FE6                     	;# 
   718  0FE7                     	;# 
   719  0FE8                     	;# 
   720  0FE8                     	;# 
   721  0FE9                     	;# 
   722  0FEA                     	;# 
   723  0FEA                     	;# 
   724  0FEB                     	;# 
   725  0FED                     	;# 
   726  0FEE                     	;# 
   727  0FEE                     	;# 
   728  0FEF                     	;# 
   729  0000                     	;# 
   730  0001                     	;# 
   731  0002                     	;# 
   732  0003                     	;# 
   733  0004                     	;# 
   734  0005                     	;# 
   735  0006                     	;# 
   736  0007                     	;# 
   737  0008                     	;# 
   738  0009                     	;# 
   739  000A                     	;# 
   740  000B                     	;# 
   741  000C                     	;# 
   742  000E                     	;# 
   743  0011                     	;# 
   744  0012                     	;# 
   745  0013                     	;# 
   746  0015                     	;# 
   747  0016                     	;# 
   748  0016                     	;# 
   749  0017                     	;# 
   750  0018                     	;# 
   751  0019                     	;# 
   752  001A                     	;# 
   753  001B                     	;# 
   754  001C                     	;# 
   755  008C                     	;# 
   756  008E                     	;# 
   757  0091                     	;# 
   758  0092                     	;# 
   759  0093                     	;# 
   760  0095                     	;# 
   761  0096                     	;# 
   762  0097                     	;# 
   763  0098                     	;# 
   764  0099                     	;# 
   765  009A                     	;# 
   766  009B                     	;# 
   767  009B                     	;# 
   768  009C                     	;# 
   769  009D                     	;# 
   770  009E                     	;# 
   771  009F                     	;# 
   772  010C                     	;# 
   773  010E                     	;# 
   774  0111                     	;# 
   775  0112                     	;# 
   776  0113                     	;# 
   777  0114                     	;# 
   778  0115                     	;# 
   779  0116                     	;# 
   780  0117                     	;# 
   781  0118                     	;# 
   782  0119                     	;# 
   783  018C                     	;# 
   784  018E                     	;# 
   785  0191                     	;# 
   786  0191                     	;# 
   787  0192                     	;# 
   788  0193                     	;# 
   789  0193                     	;# 
   790  0194                     	;# 
   791  0195                     	;# 
   792  0196                     	;# 
   793  0197                     	;# 
   794  0199                     	;# 
   795  019A                     	;# 
   796  019B                     	;# 
   797  019B                     	;# 
   798  019C                     	;# 
   799  019D                     	;# 
   800  019E                     	;# 
   801  019F                     	;# 
   802  020C                     	;# 
   803  020E                     	;# 
   804  028C                     	;# 
   805  028E                     	;# 
   806  030C                     	;# 
   807  030E                     	;# 
   808  038C                     	;# 
   809  038E                     	;# 
   810  0391                     	;# 
   811  0392                     	;# 
   812  0393                     	;# 
   813  0397                     	;# 
   814  0398                     	;# 
   815  0399                     	;# 
   816  0691                     	;# 
   817  0692                     	;# 
   818  0693                     	;# 
   819  0694                     	;# 
   820  0695                     	;# 
   821  0D8E                     	;# 
   822  0D8F                     	;# 
   823  0D90                     	;# 
   824  0D91                     	;# 
   825  0D91                     	;# 
   826  0D92                     	;# 
   827  0D93                     	;# 
   828  0D93                     	;# 
   829  0D94                     	;# 
   830  0D95                     	;# 
   831  0D95                     	;# 
   832  0D96                     	;# 
   833  0D97                     	;# 
   834  0D97                     	;# 
   835  0D98                     	;# 
   836  0D99                     	;# 
   837  0D99                     	;# 
   838  0D9A                     	;# 
   839  0D9B                     	;# 
   840  0D9C                     	;# 
   841  0D9C                     	;# 
   842  0D9D                     	;# 
   843  0D9D                     	;# 
   844  0D9E                     	;# 
   845  0D9F                     	;# 
   846  0DA0                     	;# 
   847  0DA1                     	;# 
   848  0DA1                     	;# 
   849  0DA2                     	;# 
   850  0DA3                     	;# 
   851  0DA3                     	;# 
   852  0DA4                     	;# 
   853  0DA5                     	;# 
   854  0DA5                     	;# 
   855  0DA6                     	;# 
   856  0DA7                     	;# 
   857  0DA7                     	;# 
   858  0DA8                     	;# 
   859  0DA9                     	;# 
   860  0DA9                     	;# 
   861  0DAA                     	;# 
   862  0DAB                     	;# 
   863  0DAC                     	;# 
   864  0DAC                     	;# 
   865  0DAD                     	;# 
   866  0DAD                     	;# 
   867  0DAE                     	;# 
   868  0DAF                     	;# 
   869  0DB0                     	;# 
   870  0DB1                     	;# 
   871  0DB1                     	;# 
   872  0DB2                     	;# 
   873  0DB3                     	;# 
   874  0DB3                     	;# 
   875  0DB4                     	;# 
   876  0DB5                     	;# 
   877  0DB5                     	;# 
   878  0DB6                     	;# 
   879  0DB7                     	;# 
   880  0DB7                     	;# 
   881  0DB8                     	;# 
   882  0DB9                     	;# 
   883  0DB9                     	;# 
   884  0DBA                     	;# 
   885  0DBB                     	;# 
   886  0DBC                     	;# 
   887  0DBC                     	;# 
   888  0DBD                     	;# 
   889  0DBD                     	;# 
   890  0DBE                     	;# 
   891  0DBF                     	;# 
   892  0DC0                     	;# 
   893  0DC1                     	;# 
   894  0DC1                     	;# 
   895  0DC2                     	;# 
   896  0DC3                     	;# 
   897  0DC3                     	;# 
   898  0DC4                     	;# 
   899  0DC5                     	;# 
   900  0DC5                     	;# 
   901  0DC6                     	;# 
   902  0DC7                     	;# 
   903  0DC7                     	;# 
   904  0DC8                     	;# 
   905  0DC9                     	;# 
   906  0DC9                     	;# 
   907  0DCA                     	;# 
   908  0DCB                     	;# 
   909  0DCC                     	;# 
   910  0DCC                     	;# 
   911  0DCD                     	;# 
   912  0DCD                     	;# 
   913  0DCE                     	;# 
   914  0DCF                     	;# 
   915  0DD0                     	;# 
   916  0E0F                     	;# 
   917  0E10                     	;# 
   918  0E11                     	;# 
   919  0E12                     	;# 
   920  0E13                     	;# 
   921  0E14                     	;# 
   922  0E15                     	;# 
   923  0E16                     	;# 
   924  0E17                     	;# 
   925  0E90                     	;# 
   926  0E91                     	;# 
   927  0E92                     	;# 
   928  0E94                     	;# 
   929  0E95                     	;# 
   930  0EA0                     	;# 
   931  0EA1                     	;# 
   932  0EA2                     	;# 
   933  0EA3                     	;# 
   934  0EA4                     	;# 
   935  0EA5                     	;# 
   936  0FE4                     	;# 
   937  0FE5                     	;# 
   938  0FE6                     	;# 
   939  0FE7                     	;# 
   940  0FE8                     	;# 
   941  0FE8                     	;# 
   942  0FE9                     	;# 
   943  0FEA                     	;# 
   944  0FEA                     	;# 
   945  0FEB                     	;# 
   946  0FED                     	;# 
   947  0FEE                     	;# 
   948  0FEE                     	;# 
   949  0FEF                     	;# 
   950  0000                     	;# 
   951  0001                     	;# 
   952  0002                     	;# 
   953  0003                     	;# 
   954  0004                     	;# 
   955  0005                     	;# 
   956  0006                     	;# 
   957  0007                     	;# 
   958  0008                     	;# 
   959  0009                     	;# 
   960  000A                     	;# 
   961  000B                     	;# 
   962  000C                     	;# 
   963  000E                     	;# 
   964  0011                     	;# 
   965  0012                     	;# 
   966  0013                     	;# 
   967  0015                     	;# 
   968  0016                     	;# 
   969  0016                     	;# 
   970  0017                     	;# 
   971  0018                     	;# 
   972  0019                     	;# 
   973  001A                     	;# 
   974  001B                     	;# 
   975  001C                     	;# 
   976  008C                     	;# 
   977  008E                     	;# 
   978  0091                     	;# 
   979  0092                     	;# 
   980  0093                     	;# 
   981  0095                     	;# 
   982  0096                     	;# 
   983  0097                     	;# 
   984  0098                     	;# 
   985  0099                     	;# 
   986  009A                     	;# 
   987  009B                     	;# 
   988  009B                     	;# 
   989  009C                     	;# 
   990  009D                     	;# 
   991  009E                     	;# 
   992  009F                     	;# 
   993  010C                     	;# 
   994  010E                     	;# 
   995  0111                     	;# 
   996  0112                     	;# 
   997  0113                     	;# 
   998  0114                     	;# 
   999  0115                     	;# 
  1000  0116                     	;# 
  1001  0117                     	;# 
  1002  0118                     	;# 
  1003  0119                     	;# 
  1004  018C                     	;# 
  1005  018E                     	;# 
  1006  0191                     	;# 
  1007  0191                     	;# 
  1008  0192                     	;# 
  1009  0193                     	;# 
  1010  0193                     	;# 
  1011  0194                     	;# 
  1012  0195                     	;# 
  1013  0196                     	;# 
  1014  0197                     	;# 
  1015  0199                     	;# 
  1016  019A                     	;# 
  1017  019B                     	;# 
  1018  019B                     	;# 
  1019  019C                     	;# 
  1020  019D                     	;# 
  1021  019E                     	;# 
  1022  019F                     	;# 
  1023  020C                     	;# 
  1024  020E                     	;# 
  1025  028C                     	;# 
  1026  028E                     	;# 
  1027  030C                     	;# 
  1028  030E                     	;# 
  1029  038C                     	;# 
  1030  038E                     	;# 
  1031  0391                     	;# 
  1032  0392                     	;# 
  1033  0393                     	;# 
  1034  0397                     	;# 
  1035  0398                     	;# 
  1036  0399                     	;# 
  1037  0691                     	;# 
  1038  0692                     	;# 
  1039  0693                     	;# 
  1040  0694                     	;# 
  1041  0695                     	;# 
  1042  0D8E                     	;# 
  1043  0D8F                     	;# 
  1044  0D90                     	;# 
  1045  0D91                     	;# 
  1046  0D91                     	;# 
  1047  0D92                     	;# 
  1048  0D93                     	;# 
  1049  0D93                     	;# 
  1050  0D94                     	;# 
  1051  0D95                     	;# 
  1052  0D95                     	;# 
  1053  0D96                     	;# 
  1054  0D97                     	;# 
  1055  0D97                     	;# 
  1056  0D98                     	;# 
  1057  0D99                     	;# 
  1058  0D99                     	;# 
  1059  0D9A                     	;# 
  1060  0D9B                     	;# 
  1061  0D9C                     	;# 
  1062  0D9C                     	;# 
  1063  0D9D                     	;# 
  1064  0D9D                     	;# 
  1065  0D9E                     	;# 
  1066  0D9F                     	;# 
  1067  0DA0                     	;# 
  1068  0DA1                     	;# 
  1069  0DA1                     	;# 
  1070  0DA2                     	;# 
  1071  0DA3                     	;# 
  1072  0DA3                     	;# 
  1073  0DA4                     	;# 
  1074  0DA5                     	;# 
  1075  0DA5                     	;# 
  1076  0DA6                     	;# 
  1077  0DA7                     	;# 
  1078  0DA7                     	;# 
  1079  0DA8                     	;# 
  1080  0DA9                     	;# 
  1081  0DA9                     	;# 
  1082  0DAA                     	;# 
  1083  0DAB                     	;# 
  1084  0DAC                     	;# 
  1085  0DAC                     	;# 
  1086  0DAD                     	;# 
  1087  0DAD                     	;# 
  1088  0DAE                     	;# 
  1089  0DAF                     	;# 
  1090  0DB0                     	;# 
  1091  0DB1                     	;# 
  1092  0DB1                     	;# 
  1093  0DB2                     	;# 
  1094  0DB3                     	;# 
  1095  0DB3                     	;# 
  1096  0DB4                     	;# 
  1097  0DB5                     	;# 
  1098  0DB5                     	;# 
  1099  0DB6                     	;# 
  1100  0DB7                     	;# 
  1101  0DB7                     	;# 
  1102  0DB8                     	;# 
  1103  0DB9                     	;# 
  1104  0DB9                     	;# 
  1105  0DBA                     	;# 
  1106  0DBB                     	;# 
  1107  0DBC                     	;# 
  1108  0DBC                     	;# 
  1109  0DBD                     	;# 
  1110  0DBD                     	;# 
  1111  0DBE                     	;# 
  1112  0DBF                     	;# 
  1113  0DC0                     	;# 
  1114  0DC1                     	;# 
  1115  0DC1                     	;# 
  1116  0DC2                     	;# 
  1117  0DC3                     	;# 
  1118  0DC3                     	;# 
  1119  0DC4                     	;# 
  1120  0DC5                     	;# 
  1121  0DC5                     	;# 
  1122  0DC6                     	;# 
  1123  0DC7                     	;# 
  1124  0DC7                     	;# 
  1125  0DC8                     	;# 
  1126  0DC9                     	;# 
  1127  0DC9                     	;# 
  1128  0DCA                     	;# 
  1129  0DCB                     	;# 
  1130  0DCC                     	;# 
  1131  0DCC                     	;# 
  1132  0DCD                     	;# 
  1133  0DCD                     	;# 
  1134  0DCE                     	;# 
  1135  0DCF                     	;# 
  1136  0DD0                     	;# 
  1137  0E0F                     	;# 
  1138  0E10                     	;# 
  1139  0E11                     	;# 
  1140  0E12                     	;# 
  1141  0E13                     	;# 
  1142  0E14                     	;# 
  1143  0E15                     	;# 
  1144  0E16                     	;# 
  1145  0E17                     	;# 
  1146  0E90                     	;# 
  1147  0E91                     	;# 
  1148  0E92                     	;# 
  1149  0E94                     	;# 
  1150  0E95                     	;# 
  1151  0EA0                     	;# 
  1152  0EA1                     	;# 
  1153  0EA2                     	;# 
  1154  0EA3                     	;# 
  1155  0EA4                     	;# 
  1156  0EA5                     	;# 
  1157  0FE4                     	;# 
  1158  0FE5                     	;# 
  1159  0FE6                     	;# 
  1160  0FE7                     	;# 
  1161  0FE8                     	;# 
  1162  0FE8                     	;# 
  1163  0FE9                     	;# 
  1164  0FEA                     	;# 
  1165  0FEA                     	;# 
  1166  0FEB                     	;# 
  1167  0FED                     	;# 
  1168  0FEE                     	;# 
  1169  0FEE                     	;# 
  1170  0FEF                     	;# 
  1171  0000                     	;# 
  1172  0001                     	;# 
  1173  0002                     	;# 
  1174  0003                     	;# 
  1175  0004                     	;# 
  1176  0005                     	;# 
  1177  0006                     	;# 
  1178  0007                     	;# 
  1179  0008                     	;# 
  1180  0009                     	;# 
  1181  000A                     	;# 
  1182  000B                     	;# 
  1183  000C                     	;# 
  1184  000E                     	;# 
  1185  0011                     	;# 
  1186  0012                     	;# 
  1187  0013                     	;# 
  1188  0015                     	;# 
  1189  0016                     	;# 
  1190  0016                     	;# 
  1191  0017                     	;# 
  1192  0018                     	;# 
  1193  0019                     	;# 
  1194  001A                     	;# 
  1195  001B                     	;# 
  1196  001C                     	;# 
  1197  008C                     	;# 
  1198  008E                     	;# 
  1199  0091                     	;# 
  1200  0092                     	;# 
  1201  0093                     	;# 
  1202  0095                     	;# 
  1203  0096                     	;# 
  1204  0097                     	;# 
  1205  0098                     	;# 
  1206  0099                     	;# 
  1207  009A                     	;# 
  1208  009B                     	;# 
  1209  009B                     	;# 
  1210  009C                     	;# 
  1211  009D                     	;# 
  1212  009E                     	;# 
  1213  009F                     	;# 
  1214  010C                     	;# 
  1215  010E                     	;# 
  1216  0111                     	;# 
  1217  0112                     	;# 
  1218  0113                     	;# 
  1219  0114                     	;# 
  1220  0115                     	;# 
  1221  0116                     	;# 
  1222  0117                     	;# 
  1223  0118                     	;# 
  1224  0119                     	;# 
  1225  018C                     	;# 
  1226  018E                     	;# 
  1227  0191                     	;# 
  1228  0191                     	;# 
  1229  0192                     	;# 
  1230  0193                     	;# 
  1231  0193                     	;# 
  1232  0194                     	;# 
  1233  0195                     	;# 
  1234  0196                     	;# 
  1235  0197                     	;# 
  1236  0199                     	;# 
  1237  019A                     	;# 
  1238  019B                     	;# 
  1239  019B                     	;# 
  1240  019C                     	;# 
  1241  019D                     	;# 
  1242  019E                     	;# 
  1243  019F                     	;# 
  1244  020C                     	;# 
  1245  020E                     	;# 
  1246  028C                     	;# 
  1247  028E                     	;# 
  1248  030C                     	;# 
  1249  030E                     	;# 
  1250  038C                     	;# 
  1251  038E                     	;# 
  1252  0391                     	;# 
  1253  0392                     	;# 
  1254  0393                     	;# 
  1255  0397                     	;# 
  1256  0398                     	;# 
  1257  0399                     	;# 
  1258  0691                     	;# 
  1259  0692                     	;# 
  1260  0693                     	;# 
  1261  0694                     	;# 
  1262  0695                     	;# 
  1263  0D8E                     	;# 
  1264  0D8F                     	;# 
  1265  0D90                     	;# 
  1266  0D91                     	;# 
  1267  0D91                     	;# 
  1268  0D92                     	;# 
  1269  0D93                     	;# 
  1270  0D93                     	;# 
  1271  0D94                     	;# 
  1272  0D95                     	;# 
  1273  0D95                     	;# 
  1274  0D96                     	;# 
  1275  0D97                     	;# 
  1276  0D97                     	;# 
  1277  0D98                     	;# 
  1278  0D99                     	;# 
  1279  0D99                     	;# 
  1280  0D9A                     	;# 
  1281  0D9B                     	;# 
  1282  0D9C                     	;# 
  1283  0D9C                     	;# 
  1284  0D9D                     	;# 
  1285  0D9D                     	;# 
  1286  0D9E                     	;# 
  1287  0D9F                     	;# 
  1288  0DA0                     	;# 
  1289  0DA1                     	;# 
  1290  0DA1                     	;# 
  1291  0DA2                     	;# 
  1292  0DA3                     	;# 
  1293  0DA3                     	;# 
  1294  0DA4                     	;# 
  1295  0DA5                     	;# 
  1296  0DA5                     	;# 
  1297  0DA6                     	;# 
  1298  0DA7                     	;# 
  1299  0DA7                     	;# 
  1300  0DA8                     	;# 
  1301  0DA9                     	;# 
  1302  0DA9                     	;# 
  1303  0DAA                     	;# 
  1304  0DAB                     	;# 
  1305  0DAC                     	;# 
  1306  0DAC                     	;# 
  1307  0DAD                     	;# 
  1308  0DAD                     	;# 
  1309  0DAE                     	;# 
  1310  0DAF                     	;# 
  1311  0DB0                     	;# 
  1312  0DB1                     	;# 
  1313  0DB1                     	;# 
  1314  0DB2                     	;# 
  1315  0DB3                     	;# 
  1316  0DB3                     	;# 
  1317  0DB4                     	;# 
  1318  0DB5                     	;# 
  1319  0DB5                     	;# 
  1320  0DB6                     	;# 
  1321  0DB7                     	;# 
  1322  0DB7                     	;# 
  1323  0DB8                     	;# 
  1324  0DB9                     	;# 
  1325  0DB9                     	;# 
  1326  0DBA                     	;# 
  1327  0DBB                     	;# 
  1328  0DBC                     	;# 
  1329  0DBC                     	;# 
  1330  0DBD                     	;# 
  1331  0DBD                     	;# 
  1332  0DBE                     	;# 
  1333  0DBF                     	;# 
  1334  0DC0                     	;# 
  1335  0DC1                     	;# 
  1336  0DC1                     	;# 
  1337  0DC2                     	;# 
  1338  0DC3                     	;# 
  1339  0DC3                     	;# 
  1340  0DC4                     	;# 
  1341  0DC5                     	;# 
  1342  0DC5                     	;# 
  1343  0DC6                     	;# 
  1344  0DC7                     	;# 
  1345  0DC7                     	;# 
  1346  0DC8                     	;# 
  1347  0DC9                     	;# 
  1348  0DC9                     	;# 
  1349  0DCA                     	;# 
  1350  0DCB                     	;# 
  1351  0DCC                     	;# 
  1352  0DCC                     	;# 
  1353  0DCD                     	;# 
  1354  0DCD                     	;# 
  1355  0DCE                     	;# 
  1356  0DCF                     	;# 
  1357  0DD0                     	;# 
  1358  0E0F                     	;# 
  1359  0E10                     	;# 
  1360  0E11                     	;# 
  1361  0E12                     	;# 
  1362  0E13                     	;# 
  1363  0E14                     	;# 
  1364  0E15                     	;# 
  1365  0E16                     	;# 
  1366  0E17                     	;# 
  1367  0E90                     	;# 
  1368  0E91                     	;# 
  1369  0E92                     	;# 
  1370  0E94                     	;# 
  1371  0E95                     	;# 
  1372  0EA0                     	;# 
  1373  0EA1                     	;# 
  1374  0EA2                     	;# 
  1375  0EA3                     	;# 
  1376  0EA4                     	;# 
  1377  0EA5                     	;# 
  1378  0FE4                     	;# 
  1379  0FE5                     	;# 
  1380  0FE6                     	;# 
  1381  0FE7                     	;# 
  1382  0FE8                     	;# 
  1383  0FE8                     	;# 
  1384  0FE9                     	;# 
  1385  0FEA                     	;# 
  1386  0FEA                     	;# 
  1387  0FEB                     	;# 
  1388  0FED                     	;# 
  1389  0FEE                     	;# 
  1390  0FEE                     	;# 
  1391  0FEF                     	;# 
  1392  0000                     	;# 
  1393  0001                     	;# 
  1394  0002                     	;# 
  1395  0003                     	;# 
  1396  0004                     	;# 
  1397  0005                     	;# 
  1398  0006                     	;# 
  1399  0007                     	;# 
  1400  0008                     	;# 
  1401  0009                     	;# 
  1402  000A                     	;# 
  1403  000B                     	;# 
  1404  000C                     	;# 
  1405  000E                     	;# 
  1406  0011                     	;# 
  1407  0012                     	;# 
  1408  0013                     	;# 
  1409  0015                     	;# 
  1410  0016                     	;# 
  1411  0016                     	;# 
  1412  0017                     	;# 
  1413  0018                     	;# 
  1414  0019                     	;# 
  1415  001A                     	;# 
  1416  001B                     	;# 
  1417  001C                     	;# 
  1418  008C                     	;# 
  1419  008E                     	;# 
  1420  0091                     	;# 
  1421  0092                     	;# 
  1422  0093                     	;# 
  1423  0095                     	;# 
  1424  0096                     	;# 
  1425  0097                     	;# 
  1426  0098                     	;# 
  1427  0099                     	;# 
  1428  009A                     	;# 
  1429  009B                     	;# 
  1430  009B                     	;# 
  1431  009C                     	;# 
  1432  009D                     	;# 
  1433  009E                     	;# 
  1434  009F                     	;# 
  1435  010C                     	;# 
  1436  010E                     	;# 
  1437  0111                     	;# 
  1438  0112                     	;# 
  1439  0113                     	;# 
  1440  0114                     	;# 
  1441  0115                     	;# 
  1442  0116                     	;# 
  1443  0117                     	;# 
  1444  0118                     	;# 
  1445  0119                     	;# 
  1446  018C                     	;# 
  1447  018E                     	;# 
  1448  0191                     	;# 
  1449  0191                     	;# 
  1450  0192                     	;# 
  1451  0193                     	;# 
  1452  0193                     	;# 
  1453  0194                     	;# 
  1454  0195                     	;# 
  1455  0196                     	;# 
  1456  0197                     	;# 
  1457  0199                     	;# 
  1458  019A                     	;# 
  1459  019B                     	;# 
  1460  019B                     	;# 
  1461  019C                     	;# 
  1462  019D                     	;# 
  1463  019E                     	;# 
  1464  019F                     	;# 
  1465  020C                     	;# 
  1466  020E                     	;# 
  1467  028C                     	;# 
  1468  028E                     	;# 
  1469  030C                     	;# 
  1470  030E                     	;# 
  1471  038C                     	;# 
  1472  038E                     	;# 
  1473  0391                     	;# 
  1474  0392                     	;# 
  1475  0393                     	;# 
  1476  0397                     	;# 
  1477  0398                     	;# 
  1478  0399                     	;# 
  1479  0691                     	;# 
  1480  0692                     	;# 
  1481  0693                     	;# 
  1482  0694                     	;# 
  1483  0695                     	;# 
  1484  0D8E                     	;# 
  1485  0D8F                     	;# 
  1486  0D90                     	;# 
  1487  0D91                     	;# 
  1488  0D91                     	;# 
  1489  0D92                     	;# 
  1490  0D93                     	;# 
  1491  0D93                     	;# 
  1492  0D94                     	;# 
  1493  0D95                     	;# 
  1494  0D95                     	;# 
  1495  0D96                     	;# 
  1496  0D97                     	;# 
  1497  0D97                     	;# 
  1498  0D98                     	;# 
  1499  0D99                     	;# 
  1500  0D99                     	;# 
  1501  0D9A                     	;# 
  1502  0D9B                     	;# 
  1503  0D9C                     	;# 
  1504  0D9C                     	;# 
  1505  0D9D                     	;# 
  1506  0D9D                     	;# 
  1507  0D9E                     	;# 
  1508  0D9F                     	;# 
  1509  0DA0                     	;# 
  1510  0DA1                     	;# 
  1511  0DA1                     	;# 
  1512  0DA2                     	;# 
  1513  0DA3                     	;# 
  1514  0DA3                     	;# 
  1515  0DA4                     	;# 
  1516  0DA5                     	;# 
  1517  0DA5                     	;# 
  1518  0DA6                     	;# 
  1519  0DA7                     	;# 
  1520  0DA7                     	;# 
  1521  0DA8                     	;# 
  1522  0DA9                     	;# 
  1523  0DA9                     	;# 
  1524  0DAA                     	;# 
  1525  0DAB                     	;# 
  1526  0DAC                     	;# 
  1527  0DAC                     	;# 
  1528  0DAD                     	;# 
  1529  0DAD                     	;# 
  1530  0DAE                     	;# 
  1531  0DAF                     	;# 
  1532  0DB0                     	;# 
  1533  0DB1                     	;# 
  1534  0DB1                     	;# 
  1535  0DB2                     	;# 
  1536  0DB3                     	;# 
  1537  0DB3                     	;# 
  1538  0DB4                     	;# 
  1539  0DB5                     	;# 
  1540  0DB5                     	;# 
  1541  0DB6                     	;# 
  1542  0DB7                     	;# 
  1543  0DB7                     	;# 
  1544  0DB8                     	;# 
  1545  0DB9                     	;# 
  1546  0DB9                     	;# 
  1547  0DBA                     	;# 
  1548  0DBB                     	;# 
  1549  0DBC                     	;# 
  1550  0DBC                     	;# 
  1551  0DBD                     	;# 
  1552  0DBD                     	;# 
  1553  0DBE                     	;# 
  1554  0DBF                     	;# 
  1555  0DC0                     	;# 
  1556  0DC1                     	;# 
  1557  0DC1                     	;# 
  1558  0DC2                     	;# 
  1559  0DC3                     	;# 
  1560  0DC3                     	;# 
  1561  0DC4                     	;# 
  1562  0DC5                     	;# 
  1563  0DC5                     	;# 
  1564  0DC6                     	;# 
  1565  0DC7                     	;# 
  1566  0DC7                     	;# 
  1567  0DC8                     	;# 
  1568  0DC9                     	;# 
  1569  0DC9                     	;# 
  1570  0DCA                     	;# 
  1571  0DCB                     	;# 
  1572  0DCC                     	;# 
  1573  0DCC                     	;# 
  1574  0DCD                     	;# 
  1575  0DCD                     	;# 
  1576  0DCE                     	;# 
  1577  0DCF                     	;# 
  1578  0DD0                     	;# 
  1579  0E0F                     	;# 
  1580  0E10                     	;# 
  1581  0E11                     	;# 
  1582  0E12                     	;# 
  1583  0E13                     	;# 
  1584  0E14                     	;# 
  1585  0E15                     	;# 
  1586  0E16                     	;# 
  1587  0E17                     	;# 
  1588  0E90                     	;# 
  1589  0E91                     	;# 
  1590  0E92                     	;# 
  1591  0E94                     	;# 
  1592  0E95                     	;# 
  1593  0EA0                     	;# 
  1594  0EA1                     	;# 
  1595  0EA2                     	;# 
  1596  0EA3                     	;# 
  1597  0EA4                     	;# 
  1598  0EA5                     	;# 
  1599  0FE4                     	;# 
  1600  0FE5                     	;# 
  1601  0FE6                     	;# 
  1602  0FE7                     	;# 
  1603  0FE8                     	;# 
  1604  0FE8                     	;# 
  1605  0FE9                     	;# 
  1606  0FEA                     	;# 
  1607  0FEA                     	;# 
  1608  0FEB                     	;# 
  1609  0FED                     	;# 
  1610  0FEE                     	;# 
  1611  0FEE                     	;# 
  1612  0FEF                     	;_PD
  1613                           
  1614                           	psect	idataCOMMON
  1615  0000                     __pidataCOMMON:	
  1616                           
  1617                           	psect	idataBANK0
  1618  0000                     __pidataBANK0:	
  1619                           
  1620                           	psect	idataBANK1
  1621  05A8                     __pidataBANK1:	
  1622                           
  1623                           ;initializer for _TX_RDM_Data
  1624  05A8  3400               	retlw	0
  1625  05A9  344D               	retlw	77
  1626  05AA  3452               	retlw	82
  1627  05AB  3417               	retlw	23
  1628  05AC  34C3               	retlw	195
  1629  05AD  3410               	retlw	16
  1630  05AE  3492               	retlw	146
  1631  05AF  3400               	retlw	0
  1632  05B0  3400               	retlw	0
  1633  05B1  3400               	retlw	0
  1634  05B2  3400               	retlw	0
  1635  05B3  3400               	retlw	0
  1636  05B4  3400               	retlw	0
  1637  05B5  3400               	retlw	0
  1638  05B6  3400               	retlw	0
  1639  05B7  3400               	retlw	0
  1640  05B8  3400               	retlw	0
  1641  05B9  3400               	retlw	0
  1642  05BA  3400               	retlw	0
  1643  05BB  3400               	retlw	0
  1644  05BC  3400               	retlw	0
  1645  05BD  3400               	retlw	0
  1646  05BE  3400               	retlw	0
  1647  05BF  3400               	retlw	0
  1648                           
  1649                           	psect	stringtext
  1650  0262                     __pstringtext:	
  1651  0262                     _PWM:	
  1652  0262  3400               	retlw	0
  1653  0263  3400               	retlw	0
  1654  0264  3446               	retlw	70
  1655  0265  3400               	retlw	0
  1656  0266  3446               	retlw	70
  1657  0267  3400               	retlw	0
  1658  0268  3446               	retlw	70
  1659  0269  3400               	retlw	0
  1660  026A  3446               	retlw	70
  1661  026B  3400               	retlw	0
  1662  026C  3446               	retlw	70
  1663  026D  3400               	retlw	0
  1664  026E  3446               	retlw	70
  1665  026F  3400               	retlw	0
  1666  0270  3448               	retlw	72
  1667  0271  3400               	retlw	0
  1668  0272  3448               	retlw	72
  1669  0273  3400               	retlw	0
  1670  0274  3448               	retlw	72
  1671  0275  3400               	retlw	0
  1672  0276  3448               	retlw	72
  1673  0277  3400               	retlw	0
  1674  0278  3449               	retlw	73
  1675  0279  3400               	retlw	0
  1676  027A  3449               	retlw	73
  1677  027B  3400               	retlw	0
  1678  027C  3449               	retlw	73
  1679  027D  3400               	retlw	0
  1680  027E  344A               	retlw	74
  1681  027F  3400               	retlw	0
  1682  0280  344A               	retlw	74
  1683  0281  3400               	retlw	0
  1684  0282  344C               	retlw	76
  1685  0283  3400               	retlw	0
  1686  0284  344D               	retlw	77
  1687  0285  3400               	retlw	0
  1688  0286  344D               	retlw	77
  1689  0287  3400               	retlw	0
  1690  0288  344E               	retlw	78
  1691  0289  3400               	retlw	0
  1692  028A  3450               	retlw	80
  1693  028B  3400               	retlw	0
  1694  028C  3452               	retlw	82
  1695  028D  3400               	retlw	0
  1696  028E  3453               	retlw	83
  1697  028F  3400               	retlw	0
  1698  0290  3454               	retlw	84
  1699  0291  3400               	retlw	0
  1700  0292  3456               	retlw	86
  1701  0293  3400               	retlw	0
  1702  0294  3458               	retlw	88
  1703  0295  3400               	retlw	0
  1704  0296  345A               	retlw	90
  1705  0297  3400               	retlw	0
  1706  0298  345C               	retlw	92
  1707  0299  3400               	retlw	0
  1708  029A  345E               	retlw	94
  1709  029B  3400               	retlw	0
  1710  029C  3460               	retlw	96
  1711  029D  3400               	retlw	0
  1712  029E  3462               	retlw	98
  1713  029F  3400               	retlw	0
  1714  02A0  3464               	retlw	100
  1715  02A1  3400               	retlw	0
  1716  02A2  3467               	retlw	103
  1717  02A3  3400               	retlw	0
  1718  02A4  346A               	retlw	106
  1719  02A5  3400               	retlw	0
  1720  02A6  346C               	retlw	108
  1721  02A7  3400               	retlw	0
  1722  02A8  346F               	retlw	111
  1723  02A9  3400               	retlw	0
  1724  02AA  3472               	retlw	114
  1725  02AB  3400               	retlw	0
  1726  02AC  3476               	retlw	118
  1727  02AD  3400               	retlw	0
  1728  02AE  347A               	retlw	122
  1729  02AF  3400               	retlw	0
  1730  02B0  347C               	retlw	124
  1731  02B1  3400               	retlw	0
  1732  02B2  3480               	retlw	128
  1733  02B3  3400               	retlw	0
  1734  02B4  3483               	retlw	131
  1735  02B5  3400               	retlw	0
  1736  02B6  3488               	retlw	136
  1737  02B7  3400               	retlw	0
  1738  02B8  348A               	retlw	138
  1739  02B9  3400               	retlw	0
  1740  02BA  348E               	retlw	142
  1741  02BB  3400               	retlw	0
  1742  02BC  3492               	retlw	146
  1743  02BD  3400               	retlw	0
  1744  02BE  3498               	retlw	152
  1745  02BF  3400               	retlw	0
  1746  02C0  349E               	retlw	158
  1747  02C1  3400               	retlw	0
  1748  02C2  34A4               	retlw	164
  1749  02C3  3400               	retlw	0
  1750  02C4  34AC               	retlw	172
  1751  02C5  3400               	retlw	0
  1752  02C6  34B4               	retlw	180
  1753  02C7  3400               	retlw	0
  1754  02C8  34BC               	retlw	188
  1755  02C9  3400               	retlw	0
  1756  02CA  34C0               	retlw	192
  1757  02CB  3400               	retlw	0
  1758  02CC  34C8               	retlw	200
  1759  02CD  3400               	retlw	0
  1760  02CE  34D0               	retlw	208
  1761  02CF  3400               	retlw	0
  1762  02D0  34DE               	retlw	222
  1763  02D1  3400               	retlw	0
  1764  02D2  34E4               	retlw	228
  1765  02D3  3400               	retlw	0
  1766  02D4  34EC               	retlw	236
  1767  02D5  3400               	retlw	0
  1768  02D6  34F6               	retlw	246
  1769  02D7  3400               	retlw	0
  1770  02D8  3406               	retlw	6
  1771  02D9  3401               	retlw	1
  1772  02DA  340E               	retlw	14
  1773  02DB  3401               	retlw	1
  1774  02DC  3416               	retlw	22
  1775  02DD  3401               	retlw	1
  1776  02DE  341E               	retlw	30
  1777  02DF  3401               	retlw	1
  1778  02E0  342C               	retlw	44
  1779  02E1  3401               	retlw	1
  1780  02E2  3434               	retlw	52
  1781  02E3  3401               	retlw	1
  1782  02E4  343C               	retlw	60
  1783  02E5  3401               	retlw	1
  1784  02E6  3446               	retlw	70
  1785  02E7  3401               	retlw	1
  1786  02E8  3456               	retlw	86
  1787  02E9  3401               	retlw	1
  1788  02EA  3460               	retlw	96
  1789  02EB  3401               	retlw	1
  1790  02EC  3468               	retlw	104
  1791  02ED  3401               	retlw	1
  1792  02EE  3476               	retlw	118
  1793  02EF  3401               	retlw	1
  1794  02F0  3482               	retlw	130
  1795  02F1  3401               	retlw	1
  1796  02F2  348A               	retlw	138
  1797  02F3  3401               	retlw	1
  1798  02F4  3496               	retlw	150
  1799  02F5  3401               	retlw	1
  1800  02F6  34A6               	retlw	166
  1801  02F7  3401               	retlw	1
  1802  02F8  34B2               	retlw	178
  1803  02F9  3401               	retlw	1
  1804  02FA  34BE               	retlw	190
  1805  02FB  3401               	retlw	1
  1806  02FC  34CC               	retlw	204
  1807  02FD  3401               	retlw	1
  1808  02FE  34D8               	retlw	216
  1809  02FF  3401               	retlw	1
  1810  0300  34E4               	retlw	228
  1811  0301  3401               	retlw	1
  1812  0302  34F6               	retlw	246
  1813  0303  3401               	retlw	1
  1814  0304  3402               	retlw	2
  1815  0305  3402               	retlw	2
  1816  0306  340E               	retlw	14
  1817  0307  3402               	retlw	2
  1818  0308  3420               	retlw	32
  1819  0309  3402               	retlw	2
  1820  030A  3430               	retlw	48
  1821  030B  3402               	retlw	2
  1822  030C  3440               	retlw	64
  1823  030D  3402               	retlw	2
  1824  030E  344C               	retlw	76
  1825  030F  3402               	retlw	2
  1826  0310  3462               	retlw	98
  1827  0311  3402               	retlw	2
  1828  0312  3470               	retlw	112
  1829  0313  3402               	retlw	2
  1830  0314  3480               	retlw	128
  1831  0315  3402               	retlw	2
  1832  0316  3492               	retlw	146
  1833  0317  3402               	retlw	2
  1834  0318  34A2               	retlw	162
  1835  0319  3402               	retlw	2
  1836  031A  34B6               	retlw	182
  1837  031B  3402               	retlw	2
  1838  031C  34C6               	retlw	198
  1839  031D  3402               	retlw	2
  1840  031E  34D6               	retlw	214
  1841  031F  3402               	retlw	2
  1842  0320  34EA               	retlw	234
  1843  0321  3402               	retlw	2
  1844  0322  3400               	retlw	0
  1845  0323  3403               	retlw	3
  1846  0324  341C               	retlw	28
  1847  0325  3403               	retlw	3
  1848  0326  3426               	retlw	38
  1849  0327  3403               	retlw	3
  1850  0328  3436               	retlw	54
  1851  0329  3403               	retlw	3
  1852  032A  3448               	retlw	72
  1853  032B  3403               	retlw	3
  1854  032C  3460               	retlw	96
  1855  032D  3403               	retlw	3
  1856  032E  3476               	retlw	118
  1857  032F  3403               	retlw	3
  1858  0330  3486               	retlw	134
  1859  0331  3403               	retlw	3
  1860  0332  349E               	retlw	158
  1861  0333  3403               	retlw	3
  1862  0334  34B0               	retlw	176
  1863  0335  3403               	retlw	3
  1864  0336  34C8               	retlw	200
  1865  0337  3403               	retlw	3
  1866  0338  34DC               	retlw	220
  1867  0339  3403               	retlw	3
  1868  033A  34F4               	retlw	244
  1869  033B  3403               	retlw	3
  1870  033C  3406               	retlw	6
  1871  033D  3404               	retlw	4
  1872  033E  341C               	retlw	28
  1873  033F  3404               	retlw	4
  1874  0340  343A               	retlw	58
  1875  0341  3404               	retlw	4
  1876  0342  344C               	retlw	76
  1877  0343  3404               	retlw	4
  1878  0344  3468               	retlw	104
  1879  0345  3404               	retlw	4
  1880  0346  347E               	retlw	126
  1881  0347  3404               	retlw	4
  1882  0348  3496               	retlw	150
  1883  0349  3404               	retlw	4
  1884  034A  34B2               	retlw	178
  1885  034B  3404               	retlw	4
  1886  034C  34C8               	retlw	200
  1887  034D  3404               	retlw	4
  1888  034E  34E0               	retlw	224
  1889  034F  3404               	retlw	4
  1890  0350  34F8               	retlw	248
  1891  0351  3404               	retlw	4
  1892  0352  3414               	retlw	20
  1893  0353  3405               	retlw	5
  1894  0354  3430               	retlw	48
  1895  0355  3405               	retlw	5
  1896  0356  344C               	retlw	76
  1897  0357  3405               	retlw	5
  1898  0358  3466               	retlw	102
  1899  0359  3405               	retlw	5
  1900  035A  3480               	retlw	128
  1901  035B  3405               	retlw	5
  1902  035C  349C               	retlw	156
  1903  035D  3405               	retlw	5
  1904  035E  34B8               	retlw	184
  1905  035F  3405               	retlw	5
  1906  0360  34D8               	retlw	216
  1907  0361  3405               	retlw	5
  1908  0362  34F4               	retlw	244
  1909  0363  3405               	retlw	5
  1910  0364  340E               	retlw	14
  1911  0365  3406               	retlw	6
  1912  0366  3428               	retlw	40
  1913  0367  3406               	retlw	6
  1914  0368  3448               	retlw	72
  1915  0369  3406               	retlw	6
  1916  036A  3468               	retlw	104
  1917  036B  3406               	retlw	6
  1918  036C  3488               	retlw	136
  1919  036D  3406               	retlw	6
  1920  036E  34A4               	retlw	164
  1921  036F  3406               	retlw	6
  1922  0370  34C4               	retlw	196
  1923  0371  3406               	retlw	6
  1924  0372  34DC               	retlw	220
  1925  0373  3406               	retlw	6
  1926  0374  3404               	retlw	4
  1927  0375  3407               	retlw	7
  1928  0376  3424               	retlw	36
  1929  0377  3407               	retlw	7
  1930  0378  3440               	retlw	64
  1931  0379  3407               	retlw	7
  1932  037A  3464               	retlw	100
  1933  037B  3407               	retlw	7
  1934  037C  3484               	retlw	132
  1935  037D  3407               	retlw	7
  1936  037E  34A4               	retlw	164
  1937  037F  3407               	retlw	7
  1938  0380  34C8               	retlw	200
  1939  0381  3407               	retlw	7
  1940  0382  34EC               	retlw	236
  1941  0383  3407               	retlw	7
  1942  0384  3410               	retlw	16
  1943  0385  3408               	retlw	8
  1944  0386  3430               	retlw	48
  1945  0387  3408               	retlw	8
  1946  0388  3450               	retlw	80
  1947  0389  3408               	retlw	8
  1948  038A  3470               	retlw	112
  1949  038B  3408               	retlw	8
  1950  038C  3498               	retlw	152
  1951  038D  3408               	retlw	8
  1952  038E  34C0               	retlw	192
  1953  038F  3408               	retlw	8
  1954  0390  34E8               	retlw	232
  1955  0391  3408               	retlw	8
  1956  0392  3408               	retlw	8
  1957  0393  3409               	retlw	9
  1958  0394  3430               	retlw	48
  1959  0395  3409               	retlw	9
  1960  0396  3458               	retlw	88
  1961  0397  3409               	retlw	9
  1962  0398  3480               	retlw	128
  1963  0399  3409               	retlw	9
  1964  039A  34A0               	retlw	160
  1965  039B  3409               	retlw	9
  1966  039C  34C8               	retlw	200
  1967  039D  3409               	retlw	9
  1968  039E  34F0               	retlw	240
  1969  039F  3409               	retlw	9
  1970  03A0  3418               	retlw	24
  1971  03A1  340A               	retlw	10
  1972  03A2  3440               	retlw	64
  1973  03A3  340A               	retlw	10
  1974  03A4  3468               	retlw	104
  1975  03A5  340A               	retlw	10
  1976  03A6  3494               	retlw	148
  1977  03A7  340A               	retlw	10
  1978  03A8  34BC               	retlw	188
  1979  03A9  340A               	retlw	10
  1980  03AA  34E4               	retlw	228
  1981  03AB  340A               	retlw	10
  1982  03AC  3410               	retlw	16
  1983  03AD  340B               	retlw	11
  1984  03AE  3438               	retlw	56
  1985  03AF  340B               	retlw	11
  1986  03B0  3460               	retlw	96
  1987  03B1  340B               	retlw	11
  1988  03B2  348C               	retlw	140
  1989  03B3  340B               	retlw	11
  1990  03B4  34B4               	retlw	180
  1991  03B5  340B               	retlw	11
  1992  03B6  34E8               	retlw	232
  1993  03B7  340B               	retlw	11
  1994  03B8  3416               	retlw	22
  1995  03B9  340C               	retlw	12
  1996  03BA  3440               	retlw	64
  1997  03BB  340C               	retlw	12
  1998  03BC  346C               	retlw	108
  1999  03BD  340C               	retlw	12
  2000  03BE  3498               	retlw	152
  2001  03BF  340C               	retlw	12
  2002  03C0  34CC               	retlw	204
  2003  03C1  340C               	retlw	12
  2004  03C2  34FC               	retlw	252
  2005  03C3  340C               	retlw	12
  2006  03C4  3428               	retlw	40
  2007  03C5  340D               	retlw	13
  2008  03C6  3458               	retlw	88
  2009  03C7  340D               	retlw	13
  2010  03C8  3488               	retlw	136
  2011  03C9  340D               	retlw	13
  2012  03CA  34B8               	retlw	184
  2013  03CB  340D               	retlw	13
  2014  03CC  34E8               	retlw	232
  2015  03CD  340D               	retlw	13
  2016  03CE  3418               	retlw	24
  2017  03CF  340E               	retlw	14
  2018  03D0  3448               	retlw	72
  2019  03D1  340E               	retlw	14
  2020  03D2  3478               	retlw	120
  2021  03D3  340E               	retlw	14
  2022  03D4  34A8               	retlw	168
  2023  03D5  340E               	retlw	14
  2024  03D6  34E0               	retlw	224
  2025  03D7  340E               	retlw	14
  2026  03D8  3410               	retlw	16
  2027  03D9  340F               	retlw	15
  2028  03DA  3448               	retlw	72
  2029  03DB  340F               	retlw	15
  2030  03DC  347C               	retlw	124
  2031  03DD  340F               	retlw	15
  2032  03DE  34B0               	retlw	176
  2033  03DF  340F               	retlw	15
  2034  03E0  34E4               	retlw	228
  2035  03E1  340F               	retlw	15
  2036  03E2  3418               	retlw	24
  2037  03E3  3410               	retlw	16
  2038  03E4  3450               	retlw	80
  2039  03E5  3410               	retlw	16
  2040  03E6  3488               	retlw	136
  2041  03E7  3410               	retlw	16
  2042  03E8  34BC               	retlw	188
  2043  03E9  3410               	retlw	16
  2044  03EA  34F4               	retlw	244
  2045  03EB  3410               	retlw	16
  2046  03EC  342C               	retlw	44
  2047  03ED  3411               	retlw	17
  2048  03EE  3464               	retlw	100
  2049  03EF  3411               	retlw	17
  2050  03F0  3498               	retlw	152
  2051  03F1  3411               	retlw	17
  2052  03F2  34D0               	retlw	208
  2053  03F3  3411               	retlw	17
  2054  03F4  340C               	retlw	12
  2055  03F5  3412               	retlw	18
  2056  03F6  3444               	retlw	68
  2057  03F7  3412               	retlw	18
  2058  03F8  347C               	retlw	124
  2059  03F9  3412               	retlw	18
  2060  03FA  34B4               	retlw	180
  2061  03FB  3412               	retlw	18
  2062  03FC  34F0               	retlw	240
  2063  03FD  3412               	retlw	18
  2064  03FE  3428               	retlw	40
  2065  03FF  3413               	retlw	19
  2066  0400  346C               	retlw	108
  2067  0401  3413               	retlw	19
  2068  0402  34A8               	retlw	168
  2069  0403  3413               	retlw	19
  2070  0404  34E4               	retlw	228
  2071  0405  3413               	retlw	19
  2072  0406  3420               	retlw	32
  2073  0407  3414               	retlw	20
  2074  0408  345C               	retlw	92
  2075  0409  3414               	retlw	20
  2076  040A  349C               	retlw	156
  2077  040B  3414               	retlw	20
  2078  040C  34DC               	retlw	220
  2079  040D  3414               	retlw	20
  2080  040E  3418               	retlw	24
  2081  040F  3415               	retlw	21
  2082  0410  3458               	retlw	88
  2083  0411  3415               	retlw	21
  2084  0412  349C               	retlw	156
  2085  0413  3415               	retlw	21
  2086  0414  34DC               	retlw	220
  2087  0415  3415               	retlw	21
  2088  0416  341C               	retlw	28
  2089  0417  3416               	retlw	22
  2090  0418  345C               	retlw	92
  2091  0419  3416               	retlw	22
  2092  041A  349C               	retlw	156
  2093  041B  3416               	retlw	22
  2094  041C  34E0               	retlw	224
  2095  041D  3416               	retlw	22
  2096  041E  3428               	retlw	40
  2097  041F  3417               	retlw	23
  2098  0420  3468               	retlw	104
  2099  0421  3417               	retlw	23
  2100  0422  34A8               	retlw	168
  2101  0423  3417               	retlw	23
  2102  0424  34F0               	retlw	240
  2103  0425  3417               	retlw	23
  2104  0426  3438               	retlw	56
  2105  0427  3418               	retlw	24
  2106  0428  3478               	retlw	120
  2107  0429  3418               	retlw	24
  2108  042A  34C0               	retlw	192
  2109  042B  3418               	retlw	24
  2110  042C  3404               	retlw	4
  2111  042D  3419               	retlw	25
  2112  042E  3448               	retlw	72
  2113  042F  3419               	retlw	25
  2114  0430  3498               	retlw	152
  2115  0431  3419               	retlw	25
  2116  0432  34E0               	retlw	224
  2117  0433  3419               	retlw	25
  2118  0434  3428               	retlw	40
  2119  0435  341A               	retlw	26
  2120  0436  3470               	retlw	112
  2121  0437  341A               	retlw	26
  2122  0438  34B8               	retlw	184
  2123  0439  341A               	retlw	26
  2124  043A  3400               	retlw	0
  2125  043B  341B               	retlw	27
  2126  043C  3448               	retlw	72
  2127  043D  341B               	retlw	27
  2128  043E  3490               	retlw	144
  2129  043F  341B               	retlw	27
  2130  0440  34E0               	retlw	224
  2131  0441  341B               	retlw	27
  2132  0442  3430               	retlw	48
  2133  0443  341C               	retlw	28
  2134  0444  3480               	retlw	128
  2135  0445  341C               	retlw	28
  2136  0446  34C8               	retlw	200
  2137  0447  341C               	retlw	28
  2138  0448  3418               	retlw	24
  2139  0449  341D               	retlw	29
  2140  044A  3468               	retlw	104
  2141  044B  341D               	retlw	29
  2142  044C  3480               	retlw	128
  2143  044D  341D               	retlw	29
  2144  044E  34B8               	retlw	184
  2145  044F  341D               	retlw	29
  2146  0450  3408               	retlw	8
  2147  0451  341E               	retlw	30
  2148  0452  3450               	retlw	80
  2149  0453  341E               	retlw	30
  2150  0454  34A0               	retlw	160
  2151  0455  341E               	retlw	30
  2152  0456  34E8               	retlw	232
  2153  0457  341E               	retlw	30
  2154  0458  3430               	retlw	48
  2155  0459  341F               	retlw	31
  2156  045A  3478               	retlw	120
  2157  045B  341F               	retlw	31
  2158  045C  34C0               	retlw	192
  2159  045D  341F               	retlw	31
  2160  045E  34E8               	retlw	232
  2161  045F  341F               	retlw	31
  2162  0460  34FF               	retlw	255
  2163  0461  341F               	retlw	31
  2164  0462                     __end_of_PWM:	
  2165                           
  2166                           	psect	nvBANK0
  2167  006C                     __pnvBANK0:	
  2168  006C                     _DMX_Address:	
  2169  006C                     	ds	2
  2170  0016                     _TMR1	set	22
  2171  0018                     _T1CON	set	24
  2172  000B                     _INTCON	set	11
  2173  001C                     _T2CON	set	28
  2174  001B                     _PR2	set	27
  2175  0065                     _RA5	set	101
  2176  0088                     _TMR1IF	set	136
  2177  008D                     _RCIF	set	141
  2178  0098                     _OSCTUNE	set	152
  2179  0099                     _OSCCON	set	153
  2180  048E                     _ADIE	set	1166
  2181  048C                     _TXIE	set	1164
  2182  0488                     _TMR1IE	set	1160
  2183  048D                     _RCIE	set	1165
  2184  0475                     _TRISC5	set	1141
  2185  0473                     _TRISC3	set	1139
  2186  0472                     _TRISC2	set	1138
  2187  0471                     _TRISC1	set	1137
  2188  0470                     _TRISC0	set	1136
  2189  0462                     _TRISA2	set	1122
  2190  0199                     _RCREG	set	409
  2191  019B                     _SPBRGL	set	411
  2192  019C                     _SPBRGH	set	412
  2193  019F                     _BAUDCON	set	415
  2194  019D                     _RCSTA	set	413
  2195  0CF5                     _TXEN	set	3317
  2196  0CEA                     _FERR	set	3306
  2197  0CF2                     _BRGH	set	3314
  2198  0CF4                     _SYNC	set	3316
  2199  0C73                     _ANSC3	set	3187
  2200  0C72                     _ANSC2	set	3186
  2201  0C71                     _ANSC1	set	3185
  2202  0C70                     _ANSC0	set	3184
  2203  0C62                     _ANSA2	set	3170
  2204  0DC3                     _PWM4DC	set	3523
  2205  0DB3                     _PWM3DC	set	3507
  2206  0DA3                     _PWM2DC	set	3491
  2207  0D93                     _PWM1DC	set	3475
  2208  0DCE                     _PWM4CLKCON	set	3534
  2209  0DBE                     _PWM3CLKCON	set	3518
  2210  0DAE                     _PWM2CLKCON	set	3502
  2211  0D9E                     _PWM1CLKCON	set	3486
  2212  0DC5                     _PWM4PRL	set	3525
  2213  0DB5                     _PWM3PRL	set	3509
  2214  0DA5                     _PWM2PRL	set	3493
  2215  0D95                     _PWM1PRL	set	3477
  2216  0DC6                     _PWM4PRH	set	3526
  2217  0DB6                     _PWM3PRH	set	3510
  2218  0DA6                     _PWM2PRH	set	3494
  2219  0D96                     _PWM1PRH	set	3478
  2220  0DC1                     _PWM4PHL	set	3521
  2221  0DB1                     _PWM3PHL	set	3505
  2222  0DA1                     _PWM2PHL	set	3489
  2223  0D91                     _PWM1PHL	set	3473
  2224  0DC2                     _PWM4PHH	set	3522
  2225  0DB2                     _PWM3PHH	set	3506
  2226  0DA2                     _PWM2PHH	set	3490
  2227  0D92                     _PWM1PHH	set	3474
  2228  0DCB                     _PWM4CON	set	3531
  2229  0DBB                     _PWM3CON	set	3515
  2230  0DAB                     _PWM2CON	set	3499
  2231  0D9B                     _PWM1CON	set	3483
  2232  0DCF                     _PWM4LDCON	set	3535
  2233  0DBF                     _PWM3LDCON	set	3519
  2234  0DAF                     _PWM2LDCON	set	3503
  2235  0D9F                     _PWM1LDCON	set	3487
  2236  0DC4                     _PWM4DCH	set	3524
  2237  0DB4                     _PWM3DCH	set	3508
  2238  0DA4                     _PWM2DCH	set	3492
  2239  0D94                     _PWM1DCH	set	3476
  2240  0DC3                     _PWM4DCL	set	3523
  2241  0DB3                     _PWM3DCL	set	3507
  2242  0DA3                     _PWM2DCL	set	3491
  2243  0D93                     _PWM1DCL	set	3475
  2244  0E15                     _RXPPS	set	3605
  2245  0EA2                     _RC2PPS	set	3746
  2246  0EA1                     _RC1PPS	set	3745
  2247  0EA0                     _RC0PPS	set	3744
  2248  0E92                     _RA2PPS	set	3730
  2249                           
  2250                           ; #config settings
  2251  0000                     
  2252                           	psect	cinit
  2253  000F                     start_initialization:	
  2254  000F                     __initialization:		;BIGRAM
  2255                           
  2256                           ;initializer for _DMXPeriod
  2257  000F  3064               	movlw	100
  2258  0010  00F9               	movwf	__pdataCOMMON& (0+127)
  2259                           
  2260                           ;initializer for _DMXPeriodStep
  2261  0011  3001               	movlw	1
  2262  0012  00E8               	movwf	__pdataBANK0& (0+127)
  2263  0013  30A8               	movlw	low __pidataBANK1
  2264  0014  01E9               	clrf	(__pdataBANK0+1)& (0+127)
  2265  0015  01EA               	clrf	(__pdataBANK0+2)& (0+127)
  2266  0016  01EB               	clrf	(__pdataBANK0+3)& (0+127)
  2267                           
  2268                           ; Initialize objects allocated to BANK1
  2269  0017  0084               	movwf	4
  2270  0018  3085               	movlw	(high __pidataBANK1)| (0+128)
  2271  0019  0085               	movwf	5
  2272  001A  30D8               	movlw	low __pdataBANK1
  2273  001B  0086               	movwf	6
  2274  001C  3000               	movlw	high __pdataBANK1
  2275  001D  0087               	movwf	7
  2276  001E  3018               	movlw	24
  2277  001F  01FF               	clrf	127
  2278  0020  3185  25C0  3180   	fcall	init_ram
  2279                           
  2280                           ; Clear objects allocated to BIGRAM
  2281  0023  3009               	movlw	9
  2282  0024  0084               	movwf	4
  2283  0025  3021               	movlw	33
  2284  0026  0085               	movwf	5
  2285  0027  30E7               	movlw	231
  2286  0028  00FE               	movwf	126
  2287  0029  01FF               	clrf	127
  2288  002A  3185  25CC  3180   	fcall	clear_ram0
  2289  002D  3020               	movlw	low __pbssBANK0
  2290                           
  2291                           ; Clear objects allocated to COMMON
  2292  002E  01F5               	clrf	__pbssCOMMON& (0+127)
  2293  002F  01F6               	clrf	(__pbssCOMMON+1)& (0+127)
  2294  0030  01F7               	clrf	(__pbssCOMMON+2)& (0+127)
  2295  0031  01F8               	clrf	(__pbssCOMMON+3)& (0+127)
  2296                           
  2297                           ; Clear objects allocated to BANK0
  2298  0032  0084               	movwf	4
  2299  0033  3000               	movlw	high __pbssBANK0
  2300  0034  0085               	movwf	5
  2301  0035  303B               	movlw	59
  2302  0036  00FE               	movwf	126
  2303  0037  01FF               	clrf	127
  2304  0038  3185  25CC  3180   	fcall	clear_ram0
  2305                           
  2306                           ; Clear objects allocated to BANK1
  2307  003B  30A0               	movlw	low __pbssBANK1
  2308  003C  0084               	movwf	4
  2309  003D  3000               	movlw	high __pbssBANK1
  2310  003E  0085               	movwf	5
  2311  003F  3038               	movlw	56
  2312  0040  00FE               	movwf	126
  2313  0041  01FF               	clrf	127
  2314  0042  3185  25CC  3180   	fcall	clear_ram0
  2315  0045                     end_of_initialization:	
  2316                           ;End of C runtime variable initialization code
  2317                           
  2318  0045                     __end_of__initialization:	
  2319  0045  107E               	bcf	126,0	;clear compiler interrupt flag (level 1)
  2320  0046  0020               	movlb	0
  2321  0047  2848               	ljmp	_main	;jump to C main() function
  2322  0048                     __pmaintext:	
  2323 ;;
  2324 ;;Main: autosize = 0, tempsize = 0, incstack = 0, save=0
  2325 ;;
  2326 ;; *************** function _main *****************
  2327 ;; Defined at:
  2328 ;;		line 24 in file "main.c"
  2329 ;; Parameters:    Size  Location     Type
  2330 ;;		None
  2331 ;; Auto vars:     Size  Location     Type
  2332 ;;		None
  2333 ;; Return value:  Size  Location     Type
  2334 ;;                  1    wreg      void 
  2335 ;; Registers used:
  2336 ;;		wreg, fsr0l, fsr0h, fsr1l, fsr1h, status,2, status,0, pclath, cstack
  2337 ;; Tracked objects:
  2338 ;;		On entry : B1F/0
  2339 ;;		On exit  : 0/0
  2340 ;;		Unchanged: 0/0
  2341 ;; Data sizes:     COMMON   BANK0   BANK1   BANK2   BANK3   BANK4   BANK5   BANK6
  2342 ;;      Params:         0       0       0       0       0       0       0       0
  2343 ;;      Locals:         0       0       0       0       0       0       0       0
  2344 ;;      Temps:          0       0       0       0       0       0       0       0
  2345 ;;      Totals:         0       0       0       0       0       0       0       0
  2346 ;;Total ram usage:        0 bytes
  2347 ;; Hardware stack levels required when called:    4
  2348 ;; This function calls:
  2349 ;;		_DMX_init
  2350 ;;		_DMX_loop
  2351 ;;		_timer1_init
  2352 ;; This function is called by:
  2353 ;;		Startup code after reset
  2354 ;; This function uses a non-reentrant model
  2355 ;;
  2356                           
  2357                           
  2358                           ;psect for function _main
  2359  0048                     _main:	
  2360                           
  2361                           ;main.c: 27: PWM1CON = PWM2CON = PWM3CON = PWM4CON = 0b10000000;
  2362                           
  2363                           ;incstack = 0
  2364                           ; Regs used in _main: [wreg-fsr1h+status,2+status,0+pclath+cstack]
  2365  0048  3080               	movlw	128
  2366  0049  003B               	movlb	27	; select bank27
  2367  004A  00CB               	movwf	75	;volatile
  2368  004B  00BB               	movwf	59	;volatile
  2369  004C  00AB               	movwf	43	;volatile
  2370  004D  009B               	movwf	27	;volatile
  2371                           
  2372                           ;main.c: 28: PR2 = 0xFF;
  2373  004E  30FF               	movlw	255
  2374  004F  0020               	movlb	0	; select bank0
  2375  0050  009B               	movwf	27	;volatile
  2376                           
  2377                           ;main.c: 29: T2CON = 0b00000101;
  2378  0051  3005               	movlw	5
  2379  0052  009C               	movwf	28	;volatile
  2380                           
  2381                           ;main.c: 31: OSCCON = 0b11111000;
  2382  0053  30F8               	movlw	248
  2383  0054  0021               	movlb	1	; select bank1
  2384  0055  0099               	movwf	25	;volatile
  2385                           
  2386                           ;main.c: 32: OSCTUNE = 0b000000;
  2387  0056  0198               	clrf	24	;volatile
  2388                           
  2389                           ;main.c: 34: TRISA2 = TRISC0 = TRISC1 = TRISC2 = 0;
  2390  0057  110E               	bcf	14,2	;volatile
  2391  0058  108E               	bcf	14,1	;volatile
  2392  0059  100E               	bcf	14,0	;volatile
  2393  005A  110C               	bcf	12,2	;volatile
  2394                           
  2395                           ;main.c: 35: ANSA2 = ANSC0 = ANSC1 = ANSC2 = 0;
  2396  005B  0023               	movlb	3	; select bank3
  2397  005C  110E               	bcf	14,2	;volatile
  2398  005D  108E               	bcf	14,1	;volatile
  2399  005E  100E               	bcf	14,0	;volatile
  2400  005F  110C               	bcf	12,2	;volatile
  2401                           
  2402                           ;main.c: 37: RA2PPS = 0b0011;
  2403  0060  3003               	movlw	3
  2404  0061  003D               	movlb	29	; select bank29
  2405  0062  0092               	movwf	18	;volatile
  2406                           
  2407                           ;main.c: 38: RC0PPS = 0b0100;
  2408  0063  3004               	movlw	4
  2409  0064  00A0               	movwf	32	;volatile
  2410                           
  2411                           ;main.c: 39: RC1PPS = 0b0101;
  2412  0065  3005               	movlw	5
  2413  0066  00A1               	movwf	33	;volatile
  2414                           
  2415                           ;main.c: 40: RC2PPS = 0b0110;
  2416  0067  3006               	movlw	6
  2417  0068  00A2               	movwf	34	;volatile
  2418                           
  2419                           ;main.c: 52: PWM1PHH = PWM2PHH = PWM3PHH = PWM4PHH = 0x00;
  2420  0069  003B               	movlb	27	; select bank27
  2421  006A  01C2               	clrf	66	;volatile
  2422  006B  01B2               	clrf	50	;volatile
  2423  006C  01A2               	clrf	34	;volatile
  2424  006D  0192               	clrf	18	;volatile
  2425                           
  2426                           ;main.c: 53: PWM1PHL = PWM2PHL = PWM3PHL = PWM4PHL = 0x00;
  2427  006E  01C1               	clrf	65	;volatile
  2428  006F  01B1               	clrf	49	;volatile
  2429  0070  01A1               	clrf	33	;volatile
  2430  0071  0191               	clrf	17	;volatile
  2431                           
  2432                           ;main.c: 54: PWM1PRH = PWM2PRH = PWM3PRH = PWM4PRH = 0x1F;
  2433  0072  301F               	movlw	31
  2434  0073  00C6               	movwf	70	;volatile
  2435  0074  00B6               	movwf	54	;volatile
  2436  0075  00A6               	movwf	38	;volatile
  2437  0076  0096               	movwf	22	;volatile
  2438                           
  2439                           ;main.c: 55: PWM1PRL = PWM2PRL = PWM3PRL = PWM4PRL = 0xFF;
  2440  0077  30FF               	movlw	255
  2441  0078  00C5               	movwf	69	;volatile
  2442  0079  00B5               	movwf	53	;volatile
  2443  007A  00A5               	movwf	37	;volatile
  2444  007B  0095               	movwf	21	;volatile
  2445                           
  2446                           ;main.c: 56: PWM1CLKCON = PWM2CLKCON = PWM3CLKCON = PWM4CLKCON = 0b00000000;
  2447  007C  01CE               	clrf	78	;volatile
  2448  007D  01BE               	clrf	62	;volatile
  2449  007E  01AE               	clrf	46	;volatile
  2450  007F  019E               	clrf	30	;volatile
  2451                           
  2452                           ;main.c: 59: TRISC3 = 0;
  2453  0080  0021               	movlb	1	; select bank1
  2454  0081  118E               	bcf	14,3	;volatile
  2455                           
  2456                           ;main.c: 60: ANSC3 = 0;
  2457  0082  0023               	movlb	3	; select bank3
  2458  0083  118E               	bcf	14,3	;volatile
  2459                           
  2460                           ;main.c: 61: INTCON = 0b11000000;
  2461  0084  30C0               	movlw	192
  2462  0085  008B               	movwf	11	;volatile
  2463                           
  2464                           ;main.c: 67: DMX_init();
  2465  0086  208D  3180         	fcall	_DMX_init
  2466                           
  2467                           ;main.c: 70: timer1_init();
  2468  0088  21FF  3180         	fcall	_timer1_init
  2469  008A                     l2207:	
  2470                           
  2471                           ;main.c: 79: DMX_loop();
  2472  008A  20D3  3180         	fcall	_DMX_loop
  2473  008C  288A               	goto	l2207
  2474  008D                     __end_of_main:	
  2475  008D                     __ptext4:	
  2476 ;; *************** function _DMX_init *****************
  2477 ;; Defined at:
  2478 ;;		line 16 in file "DMX.c"
  2479 ;; Parameters:    Size  Location     Type
  2480 ;;		None
  2481 ;; Auto vars:     Size  Location     Type
  2482 ;;		None
  2483 ;; Return value:  Size  Location     Type
  2484 ;;                  1    wreg      void 
  2485 ;; Registers used:
  2486 ;;		wreg, status,2, status,0
  2487 ;; Tracked objects:
  2488 ;;		On entry : B1F/3
  2489 ;;		On exit  : B1F/1
  2490 ;;		Unchanged: B00/0
  2491 ;; Data sizes:     COMMON   BANK0   BANK1   BANK2   BANK3   BANK4   BANK5   BANK6
  2492 ;;      Params:         0       0       0       0       0       0       0       0
  2493 ;;      Locals:         0       0       0       0       0       0       0       0
  2494 ;;      Temps:          0       0       0       0       0       0       0       0
  2495 ;;      Totals:         0       0       0       0       0       0       0       0
  2496 ;;Total ram usage:        0 bytes
  2497 ;; Hardware stack levels used:    1
  2498 ;; Hardware stack levels required when called:    2
  2499 ;; This function calls:
  2500 ;;		Nothing
  2501 ;; This function is called by:
  2502 ;;		_main
  2503 ;; This function uses a non-reentrant model
  2504 ;;
  2505                           
  2506                           
  2507                           ;psect for function _DMX_init
  2508  008D                     _DMX_init:	
  2509                           
  2510                           ;DMX.c: 18: RXPPS = 0b10101;
  2511                           
  2512                           ;incstack = 0
  2513                           ; Regs used in _DMX_init: [wreg+status,2+status,0]
  2514  008D  3015               	movlw	21
  2515  008E  003C               	movlb	28	; select bank28
  2516  008F  0095               	movwf	21	;volatile
  2517                           
  2518                           ;DMX.c: 19: TRISC5 = 1;
  2519  0090  0021               	movlb	1	; select bank1
  2520  0091  168E               	bsf	14,5	;volatile
  2521                           
  2522                           ;DMX.c: 21: RCSTA = 0b10010000;
  2523  0092  3090               	movlw	144
  2524  0093  0023               	movlb	3	; select bank3
  2525  0094  009D               	movwf	29	;volatile
  2526                           
  2527                           ;DMX.c: 22: SYNC = 0;
  2528  0095  121E               	bcf	30,4	;volatile
  2529                           
  2530                           ;DMX.c: 23: BAUDCON = 0b00000000;
  2531  0096  019F               	clrf	31	;volatile
  2532                           
  2533                           ;DMX.c: 24: BRGH = 1;
  2534  0097  151E               	bsf	30,2	;volatile
  2535                           
  2536                           ;DMX.c: 25: SPBRGH = 0x00;
  2537  0098  019C               	clrf	28	;volatile
  2538                           
  2539                           ;DMX.c: 26: SPBRGL = 0x3;
  2540  0099  3003               	movlw	3
  2541  009A  009B               	movwf	27	;volatile
  2542                           
  2543                           ;DMX.c: 27: RCIE = 1;
  2544  009B  0021               	movlb	1	; select bank1
  2545  009C  1691               	bsf	17,5	;volatile
  2546                           
  2547                           ;DMX.c: 33: DMX_Address = 1;
  2548  009D  0020               	movlb	0	; select bank0
  2549  009E  300D               	movlw	13
  2550  009F  01EC               	clrf	_DMX_Address
  2551  00A0  0AEC               	incf	_DMX_Address,f
  2552  00A1  01ED               	clrf	_DMX_Address+1
  2553                           
  2554                           ;DMX.c: 35: PWMDCLptr[0] = &PWM1DCL;
  2555  00A2  00A9               	movwf	_PWMDCLptr+1
  2556  00A3  3093               	movlw	147
  2557  00A4  00A8               	movwf	_PWMDCLptr
  2558                           
  2559                           ;DMX.c: 36: PWMDCLptr[1] = &PWM2DCL;
  2560  00A5  300D               	movlw	13
  2561  00A6  00AB               	movwf	(low ((_PWMDCLptr| 0+2))+1)
  2562  00A7  30A3               	movlw	163
  2563  00A8  00AA               	movwf	low ((_PWMDCLptr| 0+2))
  2564                           
  2565                           ;DMX.c: 37: PWMDCLptr[2] = &PWM3DCL;
  2566  00A9  300D               	movlw	13
  2567  00AA  00AD               	movwf	(low ((_PWMDCLptr| 0+4))+1)
  2568  00AB  30B3               	movlw	179
  2569  00AC  00AC               	movwf	low ((_PWMDCLptr| 0+4))
  2570                           
  2571                           ;DMX.c: 38: PWMDCLptr[3] = &PWM4DCL;
  2572  00AD  300D               	movlw	13
  2573  00AE  00AF               	movwf	(low ((_PWMDCLptr| 0+6))+1)
  2574  00AF  30C3               	movlw	195
  2575  00B0  00AE               	movwf	low ((_PWMDCLptr| 0+6))
  2576                           
  2577                           ;DMX.c: 39: PWMDCHptr[0] = &PWM1DCH;
  2578  00B1  300D               	movlw	13
  2579  00B2  00A1               	movwf	_PWMDCHptr+1
  2580  00B3  3094               	movlw	148
  2581  00B4  00A0               	movwf	_PWMDCHptr
  2582                           
  2583                           ;DMX.c: 40: PWMDCHptr[1] = &PWM2DCH;
  2584  00B5  300D               	movlw	13
  2585  00B6  00A3               	movwf	(low ((_PWMDCHptr| 0+2))+1)
  2586  00B7  30A4               	movlw	164
  2587  00B8  00A2               	movwf	low ((_PWMDCHptr| 0+2))
  2588                           
  2589                           ;DMX.c: 41: PWMDCHptr[2] = &PWM3DCH;
  2590  00B9  300D               	movlw	13
  2591  00BA  00A5               	movwf	(low ((_PWMDCHptr| 0+4))+1)
  2592  00BB  30B4               	movlw	180
  2593  00BC  00A4               	movwf	low ((_PWMDCHptr| 0+4))
  2594                           
  2595                           ;DMX.c: 42: PWMDCHptr[3] = &PWM4DCH;
  2596  00BD  300D               	movlw	13
  2597  00BE  00A7               	movwf	(low ((_PWMDCHptr| 0+6))+1)
  2598  00BF  30C4               	movlw	196
  2599  00C0  00A6               	movwf	low ((_PWMDCHptr| 0+6))
  2600                           
  2601                           ;DMX.c: 43: PWMLDCONptr[0] = &PWM1LDCON;
  2602  00C1  300D               	movlw	13
  2603  00C2  0021               	movlb	1	; select bank1
  2604  00C3  00B9               	movwf	(_PWMLDCONptr+1)^(0+128)
  2605  00C4  309F               	movlw	159
  2606  00C5  00B8               	movwf	_PWMLDCONptr^(0+128)
  2607                           
  2608                           ;DMX.c: 44: PWMLDCONptr[1] = &PWM2LDCON;
  2609  00C6  300D               	movlw	13
  2610  00C7  00BB               	movwf	((low ((_PWMLDCONptr| 0+2))+1))^(0+128)
  2611  00C8  30AF               	movlw	175
  2612  00C9  00BA               	movwf	(low ((_PWMLDCONptr| 0+2)))^(0+128)
  2613                           
  2614                           ;DMX.c: 45: PWMLDCONptr[2] = &PWM3LDCON;
  2615  00CA  300D               	movlw	13
  2616  00CB  00BD               	movwf	((low ((_PWMLDCONptr| 0+4))+1))^(0+128)
  2617  00CC  30BF               	movlw	191
  2618  00CD  00BC               	movwf	(low ((_PWMLDCONptr| 0+4)))^(0+128)
  2619                           
  2620                           ;DMX.c: 46: PWMLDCONptr[3] = &PWM4LDCON;
  2621  00CE  300D               	movlw	13
  2622  00CF  00BF               	movwf	((low ((_PWMLDCONptr| 0+6))+1))^(0+128)
  2623  00D0  30CF               	movlw	207
  2624  00D1  00BE               	movwf	(low ((_PWMLDCONptr| 0+6)))^(0+128)
  2625  00D2  0008               	return
  2626  00D3                     __end_of_DMX_init:	
  2627  00D3                     __ptext2:	
  2628 ;; *************** function _DMX_loop *****************
  2629 ;; Defined at:
  2630 ;;		line 49 in file "DMX.c"
  2631 ;; Parameters:    Size  Location     Type
  2632 ;;		None
  2633 ;; Auto vars:     Size  Location     Type
  2634 ;;  Addr            1    4[COMMON] unsigned char 
  2635 ;; Return value:  Size  Location     Type
  2636 ;;                  1    wreg      void 
  2637 ;; Registers used:
  2638 ;;		wreg, fsr0l, fsr0h, fsr1l, fsr1h, status,2, status,0, pclath, cstack
  2639 ;; Tracked objects:
  2640 ;;		On entry : 0/0
  2641 ;;		On exit  : 0/0
  2642 ;;		Unchanged: 0/0
  2643 ;; Data sizes:     COMMON   BANK0   BANK1   BANK2   BANK3   BANK4   BANK5   BANK6
  2644 ;;      Params:         0       0       0       0       0       0       0       0
  2645 ;;      Locals:         1       0       0       0       0       0       0       0
  2646 ;;      Temps:          0       5       0       0       0       0       0       0
  2647 ;;      Totals:         1       5       0       0       0       0       0       0
  2648 ;;Total ram usage:        6 bytes
  2649 ;; Hardware stack levels used:    1
  2650 ;; Hardware stack levels required when called:    3
  2651 ;; This function calls:
  2652 ;;		___awdiv
  2653 ;; This function is called by:
  2654 ;;		_main
  2655 ;; This function uses a non-reentrant model
  2656 ;;
  2657                           
  2658                           
  2659                           ;psect for function _DMX_loop
  2660  00D3                     _DMX_loop:	
  2661                           
  2662                           ;DMX.c: 50: char Addr = 0;
  2663                           
  2664                           ;incstack = 0
  2665                           ; Regs used in _DMX_loop: [wreg-fsr1h+status,2+status,0+pclath+cstack]
  2666  00D3  01F4               	clrf	DMX_loop@Addr
  2667                           
  2668                           ;DMX.c: 53: if (DMX_Flags.RxNew == 1) {
  2669  00D4  0020               	movlb	0	; select bank0
  2670  00D5  1C4B               	btfss	_DMX_Flags,0	;volatile
  2671  00D6  2941               	goto	l287
  2672                           
  2673                           ;DMX.c: 54: DMX_Flags.RxNew = 0;
  2674  00D7  104B               	bcf	_DMX_Flags,0	;volatile
  2675  00D8                     l2117:	
  2676                           ;DMX.c: 57: while (Addr < 4) {
  2677                           
  2678  00D8  3004               	movlw	4
  2679  00D9  0274               	subwf	DMX_loop@Addr,w
  2680  00DA  1803               	btfsc	3,0
  2681  00DB  2941               	goto	l287
  2682                           
  2683                           ;DMX.c: 58: if (RGBW[Addr] > RxData[Addr]) {
  2684  00DC  0874               	movf	DMX_loop@Addr,w
  2685  00DD  3E57               	addlw	(low (_RxData| 0))& (0+255)
  2686  00DE  2234  3180         	fcall	PL8	;call to abstracted procedure
  2687  00E0  0201               	subwf	1,w
  2688                           
  2689                           ;DMX.c: 59: DMXPeriodSign[Addr].X = 0b10;
  2690  00E1  0874               	movf	DMX_loop@Addr,w
  2691  00E2  1803               	skipnc
  2692  00E3  290A               	goto	L4
  2693  00E4  3E37               	addlw	(low (_DMXPeriodSign| 0))& (0+255)
  2694  00E5  0086               	movwf	6
  2695  00E6  0801               	movf	1,w
  2696  00E7  39FC               	andlw	-4
  2697  00E8  3802               	iorlw	2
  2698  00E9  0081               	movwf	1
  2699                           
  2700                           ;DMX.c: 60: if ((RGBW[Addr] - RxData[Addr]) < DMXPeriod) {
  2701  00EA  0874               	movf	DMX_loop@Addr,w
  2702  00EB  3E57               	addlw	(low (_RxData| 0))& (0+255)
  2703  00EC  0086               	movwf	6
  2704  00ED  0874               	movf	DMX_loop@Addr,w
  2705  00EE  3E3F               	addlw	(low (_RGBW| 0))& (0+255)
  2706                           
  2707                           ;DMX.c: 61: DMXPeriodStep[Addr] = DMXPeriod / (RGBW[Addr] - RxData[Addr]);
  2708  00EF  2204  3180         	fcall	PL2	;call to abstracted procedure
  2709  00F1  1803               	skipnc
  2710  00F2  28FB               	goto	L5
  2711  00F3  3E68               	addlw	(low (_DMXPeriodStep| 0))& (0+255)
  2712  00F4  223C  3180         	fcall	PL10	;call to abstracted procedure
  2713  00F6  0020               	movlb	0	; select bank0
  2714  00F7  00E3               	movwf	??_DMX_loop
  2715  00F8  0874               	movf	DMX_loop@Addr,w
  2716  00F9  3E3F               	addlw	(low (_RGBW| 0))& (0+255)
  2717  00FA  2927               	goto	L3
  2718  00FB                     L5:	
  2719                           ;DMX.c: 63: DMXPeriodStep[Addr] = 1;
  2720                           
  2721                           ;DMX.c: 62: } else {
  2722                           
  2723  00FB  3E68               	addlw	(low (_DMXPeriodStep| 0))& (0+255)
  2724  00FC  0086               	movwf	6
  2725  00FD  0187               	clrf	7
  2726  00FE  0181               	clrf	1
  2727  00FF  0A81               	incf	1,f
  2728  0100                     l2099:	
  2729                           
  2730                           ;DMX.c: 64: }
  2731                           ;DMX.c: 65: DMXPeriodStepConst[Addr]=DMXPeriodStep[Addr];
  2732  0100  0874               	movf	DMX_loop@Addr,w
  2733  0101  3E3B               	addlw	(low (_DMXPeriodStepConst| 0))& (0+255)
  2734  0102  0086               	movwf	6
  2735  0103  0187               	clrf	7
  2736  0104  0874               	movf	DMX_loop@Addr,w
  2737  0105  3E68               	addlw	(low (_DMXPeriodStep| 0))& (0+255)
  2738  0106  0084               	movwf	4
  2739  0107  0185               	clrf	5
  2740  0108  0800               	movf	0,w
  2741  0109  293E               	goto	L2
  2742  010A                     L4:	
  2743                           ;DMX.c: 66: } else if (RGBW[Addr] < RxData[Addr]) {
  2744                           
  2745  010A  3E3F               	addlw	(low (_RGBW| 0))& (0+255)
  2746  010B  223C  3180         	fcall	PL10	;call to abstracted procedure
  2747  010D  0201               	subwf	1,w
  2748                           
  2749                           ;DMX.c: 67: DMXPeriodSign[Addr].X = 0b01;
  2750  010E  0874               	movf	DMX_loop@Addr,w
  2751  010F  1803               	skipnc
  2752  0110  2938               	goto	L6
  2753  0111  3E37               	addlw	(low (_DMXPeriodSign| 0))& (0+255)
  2754  0112  0086               	movwf	6
  2755  0113  0801               	movf	1,w
  2756  0114  39FC               	andlw	-4
  2757  0115  3801               	iorlw	1
  2758  0116  0081               	movwf	1
  2759                           
  2760                           ;DMX.c: 68: if ((RxData[Addr] - RGBW[Addr]) < DMXPeriod) {
  2761  0117  0874               	movf	DMX_loop@Addr,w
  2762  0118  3E3F               	addlw	(low (_RGBW| 0))& (0+255)
  2763  0119  0086               	movwf	6
  2764  011A  0874               	movf	DMX_loop@Addr,w
  2765  011B  3E57               	addlw	(low (_RxData| 0))& (0+255)
  2766                           
  2767                           ;DMX.c: 69: DMXPeriodStep[Addr] = DMXPeriod / (RxData[Addr] - RGBW[Addr]);
  2768  011C  2204  3180         	fcall	PL2	;call to abstracted procedure
  2769  011E  1803               	skipnc
  2770  011F  28FB               	goto	L5
  2771  0120  3E68               	addlw	(low (_DMXPeriodStep| 0))& (0+255)
  2772  0121  2234  3180         	fcall	PL8	;call to abstracted procedure
  2773  0123  0020               	movlb	0	; select bank0
  2774  0124  00E3               	movwf	??_DMX_loop
  2775  0125  0874               	movf	DMX_loop@Addr,w
  2776  0126  3E57               	addlw	(low (_RxData| 0))& (0+255)
  2777  0127                     L3:	
  2778  0127  0084               	movwf	4
  2779  0128  0800               	movf	0,w
  2780  0129  00E4               	movwf	??_DMX_loop+1
  2781  012A  0863               	movf	??_DMX_loop,w
  2782  012B  0264               	subwf	??_DMX_loop+1,w
  2783  012C  00DB               	movwf	___awdiv@divisor
  2784  012D  01DC               	clrf	___awdiv@divisor+1
  2785  012E  1C03               	skipc
  2786  012F  03DC               	decf	___awdiv@divisor+1,f
  2787  0130  0879               	movf	_DMXPeriod,w
  2788  0131  00DD               	movwf	___awdiv@dividend
  2789  0132  01DE               	clrf	___awdiv@dividend+1
  2790  0133  21BF  3180         	fcall	___awdiv
  2791  0135  085B               	movf	?___awdiv,w
  2792  0136  0081               	movwf	1
  2793                           
  2794                           ;DMX.c: 70: } else {
  2795  0137  2900               	goto	l2099
  2796  0138                     L6:	
  2797                           ;DMX.c: 75: DMXPeriodSign[Addr].X = 0b00;
  2798                           
  2799  0138  2244  3180         	fcall	PL12	;call to abstracted procedure
  2800                           
  2801                           ;DMX.c: 76: DMXPeriodStep[Addr] = 255;
  2802  013A  0874               	movf	DMX_loop@Addr,w
  2803  013B  3E68               	addlw	(low (_DMXPeriodStep| 0))& (0+255)
  2804  013C  0086               	movwf	6
  2805  013D  30FF               	movlw	255
  2806  013E                     L2:	
  2807  013E  0081               	movwf	1
  2808                           
  2809                           ;DMX.c: 77: }
  2810                           ;DMX.c: 78: Addr++;
  2811  013F  0AF4               	incf	DMX_loop@Addr,f
  2812  0140  28D8               	goto	l2117
  2813  0141                     l287:	
  2814                           
  2815                           ;DMX.c: 79: }
  2816                           ;DMX.c: 80: }
  2817                           ;DMX.c: 83: if (Timer.MS) {
  2818  0141  0020               	movlb	0	; select bank0
  2819  0142  1C30               	btfss	_Timer,0	;volatile
  2820  0143  0008               	return
  2821                           
  2822                           ;DMX.c: 84: DMXPeriodConst++;
  2823  0144  0AF7               	incf	_DMXPeriodConst,f	;volatile
  2824                           
  2825                           ;DMX.c: 85: Timer.MS = 0;
  2826  0145  1030               	bcf	_Timer,0	;volatile
  2827                           
  2828                           ;DMX.c: 88: Addr = 0;
  2829  0146  01F4               	clrf	DMX_loop@Addr
  2830                           
  2831                           ;DMX.c: 89: while (Addr < 4) {
  2832  0147  29A0               	goto	l2159
  2833  0148                     l2125:	
  2834                           
  2835                           ;DMX.c: 92: if(DMXPeriodStepConst[Addr]==0){
  2836  0148  2250  3180         	fcall	PL16	;call to abstracted procedure
  2837  014A  1D03               	btfss	3,2
  2838  014B  294F               	goto	l2131
  2839                           
  2840                           ;DMX.c: 93: DMXPeriodStepConst[Addr]=DMXPeriodStep[Addr];
  2841                           
  2842                           ;DMX.c: 94: RGBW[Addr]++;
  2843  014C  221B  3180         	fcall	PL4	;call to abstracted procedure
  2844  014E  0A81               	incf	1,f
  2845  014F                     l2131:	
  2846                           
  2847                           ;DMX.c: 95: }
  2848                           ;DMX.c: 96: DMXPeriodStepConst[Addr]--;
  2849  014F  0874               	movf	DMX_loop@Addr,w
  2850  0150  3E3B               	addlw	(low (_DMXPeriodStepConst| 0))& (0+255)
  2851  0151  0086               	movwf	6
  2852  0152  0187               	clrf	7
  2853  0153  0381               	decf	1,f
  2854                           
  2855                           ;DMX.c: 97: break;
  2856  0154  296C               	goto	l2149
  2857  0155                     l2133:	
  2858                           
  2859                           ;DMX.c: 99: if(DMXPeriodStepConst[Addr]==0){
  2860  0155  2250  3180         	fcall	PL16	;call to abstracted procedure
  2861  0157  1D03               	btfss	3,2
  2862  0158  294F               	goto	l2131
  2863                           
  2864                           ;DMX.c: 100: DMXPeriodStepConst[Addr]=DMXPeriodStep[Addr];
  2865                           
  2866                           ;DMX.c: 101: RGBW[Addr]--;
  2867  0159  221B  3180         	fcall	PL4	;call to abstracted procedure
  2868  015B  0381               	decf	1,f
  2869  015C  294F               	goto	l2131
  2870  015D                     l2147:	
  2871                           ;DMX.c: 107: continue;
  2872                           
  2873  015D  0874               	movf	DMX_loop@Addr,w
  2874  015E  3E37               	addlw	(low (_DMXPeriodSign| 0))& (0+255)
  2875  015F  0086               	movwf	6
  2876  0160  0187               	clrf	7
  2877  0161  0801               	movf	1,w
  2878  0162  3903               	andlw	3
  2879                           
  2880                           ; Switch size 1, requested type "space"
  2881                           ; Number of cases is 3, Range of values is 0 to 2
  2882                           ; switch strategies available:
  2883                           ; Name         Instructions Cycles
  2884                           ; simple_byte           10     6 (average)
  2885                           ; direct_byte           12     6 (fixed)
  2886                           ; jumptable            260     6 (fixed)
  2887                           ;	Chosen strategy is simple_byte
  2888  0163  1903               	skipnz
  2889  0164  299F               	goto	l2141
  2890  0165  3A01               	xorlw	1	; case 1
  2891  0166  1903               	skipnz
  2892  0167  2948               	goto	l2125
  2893  0168  3A03               	xorlw	3	; case 2
  2894  0169  1903               	skipnz
  2895  016A  2955               	goto	l2133
  2896  016B  296C               	goto	l2149
  2897  016C                     l2149:	
  2898                           
  2899                           ;DMX.c: 110: *PWMDCHptr[Addr] = PWM.PWM[RGBW[Addr]].DCH;
  2900  016C  224A  3180         	fcall	PL14	;call to abstracted procedure
  2901  016E  0020               	movlb	0	; select bank0
  2902  016F  00E3               	movwf	??_DMX_loop
  2903  0170  3063               	movlw	low ((_PWM+1)| (0+32768))
  2904  0171  225C  3180         	fcall	PL20	;call to abstracted procedure
  2905  0173  3082               	movlw	high ((_PWM+1)| (0+32768))
  2906  0174  2256  3180         	fcall	PL18	;call to abstracted procedure
  2907  0176  3E20               	addlw	(low (_PWMDCHptr| 0))& (0+255)
  2908  0177  2228  3180         	fcall	PL6	;call to abstracted procedure
  2909                           
  2910                           ;DMX.c: 111: *PWMDCLptr[Addr] = PWM.PWM[RGBW[Addr]].DCL;
  2911  0179  224A  3180         	fcall	PL14	;call to abstracted procedure
  2912  017B  00E3               	movwf	??_DMX_loop
  2913  017C  3062               	movlw	low (_PWM| (0+32768))
  2914  017D  225C  3180         	fcall	PL20	;call to abstracted procedure
  2915  017F  3082               	movlw	high (_PWM| (0+32768))
  2916  0180  2256  3180         	fcall	PL18	;call to abstracted procedure
  2917  0182  3E28               	addlw	(low (_PWMDCLptr| 0))& (0+255)
  2918  0183  2228  3180         	fcall	PL6	;call to abstracted procedure
  2919                           
  2920                           ;DMX.c: 112: *PWMLDCONptr[Addr] = 0b10000000;
  2921  0185  3574               	lslf	DMX_loop@Addr,w
  2922  0186  3EB8               	addlw	(low (_PWMLDCONptr| 0))& (0+255)
  2923  0187  0086               	movwf	6
  2924  0188  0187               	clrf	7
  2925  0189  3F40               	moviw [0]fsr1
  2926  018A  00E3               	movwf	??_DMX_loop
  2927  018B  3F41               	moviw [1]fsr1
  2928  018C  00E4               	movwf	??_DMX_loop+1
  2929  018D  0863               	movf	??_DMX_loop,w
  2930  018E  0086               	movwf	6
  2931  018F  0864               	movf	??_DMX_loop+1,w
  2932  0190  0087               	movwf	7
  2933  0191  3080               	movlw	128
  2934  0192  0081               	movwf	1
  2935                           
  2936                           ;DMX.c: 113: if (RGBW[Addr] == RxData[Addr]) {
  2937  0193  0874               	movf	DMX_loop@Addr,w
  2938  0194  3E57               	addlw	(low (_RxData| 0))& (0+255)
  2939  0195  2234  3180         	fcall	PL8	;call to abstracted procedure
  2940  0197  0601               	xorwf	1,w
  2941  0198  1D03               	skipz
  2942  0199  299F               	goto	l2141
  2943                           
  2944                           ;DMX.c: 114: DMXPeriodSign[Addr].X = 0b00;
  2945  019A  0874               	movf	DMX_loop@Addr,w
  2946  019B  3E37               	addlw	(low (_DMXPeriodSign| 0))& (0+255)
  2947  019C  0086               	movwf	6
  2948  019D  30FC               	movlw	-4
  2949  019E  0581               	andwf	1,f
  2950  019F                     l2141:	
  2951                           
  2952                           ;DMX.c: 106: Addr++;
  2953  019F  0AF4               	incf	DMX_loop@Addr,f
  2954  01A0                     l2159:	
  2955  01A0  3004               	movlw	4
  2956  01A1  0274               	subwf	DMX_loop@Addr,w
  2957  01A2  1C03               	skipc
  2958  01A3  295D               	goto	l2147
  2959                           
  2960                           ;DMX.c: 117: }
  2961                           ;DMX.c: 123: if (DMX_Flags.RxTimeout == 1) {
  2962  01A4  0020               	movlb	0	; select bank0
  2963  01A5  1DCB               	btfss	_DMX_Flags,3	;volatile
  2964  01A6  0008               	return
  2965                           
  2966                           ;DMX.c: 124: PWM1DC = PWM2DC = PWM3DC = PWM4DC = 0;
  2967  01A7  003B               	movlb	27	; select bank27
  2968  01A8  01C3               	clrf	67	;volatile
  2969  01A9  01C4               	clrf	68	;volatile
  2970  01AA  01B3               	clrf	51	;volatile
  2971  01AB  01B4               	clrf	52	;volatile
  2972  01AC  01A3               	clrf	35	;volatile
  2973  01AD  01A4               	clrf	36	;volatile
  2974  01AE  0193               	clrf	19	;volatile
  2975  01AF  0194               	clrf	20	;volatile
  2976                           
  2977                           ;DMX.c: 125: PWM1LDCON = PWM2LDCON = PWM3LDCON = PWM4LDCON = 0b10000000;
  2978  01B0  3080               	movlw	128
  2979  01B1  00CF               	movwf	79	;volatile
  2980  01B2  00BF               	movwf	63	;volatile
  2981  01B3  00AF               	movwf	47	;volatile
  2982  01B4  009F               	movwf	31	;volatile
  2983                           
  2984                           ;DMX.c: 126: Addr=0;
  2985  01B5  01F4               	clrf	DMX_loop@Addr
  2986  01B6                     l2171:	
  2987                           ;DMX.c: 127: while (Addr < 4) {
  2988                           
  2989  01B6  3004               	movlw	4
  2990  01B7  0274               	subwf	DMX_loop@Addr,w
  2991  01B8  1803               	btfsc	3,0
  2992  01B9  0008               	return
  2993                           
  2994                           ;DMX.c: 128: DMXPeriodSign[Addr].X=0b00;
  2995  01BA  0874               	movf	DMX_loop@Addr,w
  2996  01BB  2244  3180         	fcall	PL12	;call to abstracted procedure
  2997                           
  2998                           ;DMX.c: 129: Addr++;
  2999  01BD  0AF4               	incf	DMX_loop@Addr,f
  3000  01BE  29B6               	goto	l2171
  3001  01BF                     __end_of_DMX_loop:	
  3002  01BF                     __ptext3:	
  3003 ;; *************** function ___awdiv *****************
  3004 ;; Defined at:
  3005 ;;		line 6 in file "C:\Program Files (x86)\Microchip\xc8\v1.41\sources\common\awdiv.c"
  3006 ;; Parameters:    Size  Location     Type
  3007 ;;  divisor         2    0[BANK0 ] int 
  3008 ;;  dividend        2    2[BANK0 ] int 
  3009 ;; Auto vars:     Size  Location     Type
  3010 ;;  quotient        2    6[BANK0 ] int 
  3011 ;;  sign            1    5[BANK0 ] unsigned char 
  3012 ;;  counter         1    4[BANK0 ] unsigned char 
  3013 ;; Return value:  Size  Location     Type
  3014 ;;                  2    0[BANK0 ] int 
  3015 ;; Registers used:
  3016 ;;		wreg, status,2, status,0
  3017 ;; Tracked objects:
  3018 ;;		On entry : 1F/0
  3019 ;;		On exit  : 1F/0
  3020 ;;		Unchanged: 0/0
  3021 ;; Data sizes:     COMMON   BANK0   BANK1   BANK2   BANK3   BANK4   BANK5   BANK6
  3022 ;;      Params:         0       4       0       0       0       0       0       0
  3023 ;;      Locals:         0       4       0       0       0       0       0       0
  3024 ;;      Temps:          0       0       0       0       0       0       0       0
  3025 ;;      Totals:         0       8       0       0       0       0       0       0
  3026 ;;Total ram usage:        8 bytes
  3027 ;; Hardware stack levels used:    1
  3028 ;; Hardware stack levels required when called:    2
  3029 ;; This function calls:
  3030 ;;		Nothing
  3031 ;; This function is called by:
  3032 ;;		_DMX_loop
  3033 ;; This function uses a non-reentrant model
  3034 ;;
  3035                           
  3036                           
  3037                           ;psect for function ___awdiv
  3038  01BF                     ___awdiv:	
  3039                           
  3040                           ;incstack = 0
  3041                           ; Regs used in ___awdiv: [wreg+status,2+status,0]
  3042  01BF  01E0               	clrf	___awdiv@sign
  3043  01C0  1FDC               	btfss	___awdiv@divisor+1,7
  3044  01C1  29C9               	goto	l2047
  3045  01C2  09DB               	comf	___awdiv@divisor,f
  3046  01C3  09DC               	comf	___awdiv@divisor+1,f
  3047  01C4  0ADB               	incf	___awdiv@divisor,f
  3048  01C5  1903               	skipnz
  3049  01C6  0ADC               	incf	___awdiv@divisor+1,f
  3050  01C7  01E0               	clrf	___awdiv@sign
  3051  01C8  0AE0               	incf	___awdiv@sign,f
  3052  01C9                     l2047:	
  3053  01C9  1FDE               	btfss	___awdiv@dividend+1,7
  3054  01CA  29D2               	goto	l2053
  3055  01CB  09DD               	comf	___awdiv@dividend,f
  3056  01CC  09DE               	comf	___awdiv@dividend+1,f
  3057  01CD  0ADD               	incf	___awdiv@dividend,f
  3058  01CE  1903               	skipnz
  3059  01CF  0ADE               	incf	___awdiv@dividend+1,f
  3060  01D0  3001               	movlw	1
  3061  01D1  06E0               	xorwf	___awdiv@sign,f
  3062  01D2                     l2053:	
  3063  01D2  01E1               	clrf	___awdiv@quotient
  3064  01D3  01E2               	clrf	___awdiv@quotient+1
  3065  01D4  085B               	movf	___awdiv@divisor,w
  3066  01D5  045C               	iorwf	___awdiv@divisor+1,w
  3067  01D6  1903               	btfsc	3,2
  3068  01D7  29F2               	goto	l2075
  3069  01D8  01DF               	clrf	___awdiv@counter
  3070  01D9                     L7:	
  3071  01D9  0ADF               	incf	___awdiv@counter,f
  3072  01DA  1BDC               	btfsc	___awdiv@divisor+1,7
  3073  01DB  29DF               	goto	l2063
  3074  01DC  35DB               	lslf	___awdiv@divisor,f
  3075  01DD  0DDC               	rlf	___awdiv@divisor+1,f
  3076  01DE  29D9               	goto	L7
  3077  01DF                     l2063:	
  3078  01DF  35E1               	lslf	___awdiv@quotient,f
  3079  01E0  0DE2               	rlf	___awdiv@quotient+1,f
  3080  01E1  085C               	movf	___awdiv@divisor+1,w
  3081  01E2  025E               	subwf	___awdiv@dividend+1,w
  3082  01E3  1D03               	skipz
  3083  01E4  29E7               	goto	u955
  3084  01E5  085B               	movf	___awdiv@divisor,w
  3085  01E6  025D               	subwf	___awdiv@dividend,w
  3086  01E7                     u955:	
  3087  01E7  1C03               	skipc
  3088  01E8  29EE               	goto	l2071
  3089  01E9  085B               	movf	___awdiv@divisor,w
  3090  01EA  02DD               	subwf	___awdiv@dividend,f
  3091  01EB  085C               	movf	___awdiv@divisor+1,w
  3092  01EC  3BDE               	subwfb	___awdiv@dividend+1,f
  3093  01ED  1461               	bsf	___awdiv@quotient,0
  3094  01EE                     l2071:	
  3095  01EE  36DC               	lsrf	___awdiv@divisor+1,f
  3096  01EF  0CDB               	rrf	___awdiv@divisor,f
  3097  01F0  0BDF               	decfsz	___awdiv@counter,f
  3098  01F1  29DF               	goto	l2063
  3099  01F2                     l2075:	
  3100  01F2  0860               	movf	___awdiv@sign,w
  3101  01F3  1903               	btfsc	3,2
  3102  01F4  29FA               	goto	l2079
  3103  01F5  09E1               	comf	___awdiv@quotient,f
  3104  01F6  09E2               	comf	___awdiv@quotient+1,f
  3105  01F7  0AE1               	incf	___awdiv@quotient,f
  3106  01F8  1903               	skipnz
  3107  01F9  0AE2               	incf	___awdiv@quotient+1,f
  3108  01FA                     l2079:	
  3109  01FA  0862               	movf	___awdiv@quotient+1,w
  3110  01FB  00DC               	movwf	?___awdiv+1
  3111  01FC  0861               	movf	___awdiv@quotient,w
  3112  01FD  00DB               	movwf	?___awdiv
  3113  01FE  0008               	return
  3114  01FF                     __end_of___awdiv:	
  3115  01FF                     __ptext1:	
  3116 ;; *************** function _timer1_init *****************
  3117 ;; Defined at:
  3118 ;;		line 15 in file "Timer.c"
  3119 ;; Parameters:    Size  Location     Type
  3120 ;;		None
  3121 ;; Auto vars:     Size  Location     Type
  3122 ;;		None
  3123 ;; Return value:  Size  Location     Type
  3124 ;;                  2   90[None  ] int 
  3125 ;; Registers used:
  3126 ;;		wreg
  3127 ;; Tracked objects:
  3128 ;;		On entry : B1F/1
  3129 ;;		On exit  : B1F/0
  3130 ;;		Unchanged: B00/0
  3131 ;; Data sizes:     COMMON   BANK0   BANK1   BANK2   BANK3   BANK4   BANK5   BANK6
  3132 ;;      Params:         0       0       0       0       0       0       0       0
  3133 ;;      Locals:         0       0       0       0       0       0       0       0
  3134 ;;      Temps:          0       0       0       0       0       0       0       0
  3135 ;;      Totals:         0       0       0       0       0       0       0       0
  3136 ;;Total ram usage:        0 bytes
  3137 ;; Hardware stack levels used:    1
  3138 ;; Hardware stack levels required when called:    2
  3139 ;; This function calls:
  3140 ;;		Nothing
  3141 ;; This function is called by:
  3142 ;;		_main
  3143 ;; This function uses a non-reentrant model
  3144 ;;
  3145                           
  3146                           
  3147                           ;psect for function _timer1_init
  3148  01FF                     _timer1_init:	
  3149                           
  3150                           ;Timer.c: 16: TMR1IE = 1;
  3151                           
  3152                           ;incstack = 0
  3153                           ; Regs used in _timer1_init: [wreg]
  3154  01FF  1411               	bsf	17,0	;volatile
  3155                           
  3156                           ;Timer.c: 17: T1CON = 0b00100001;
  3157  0200  3021               	movlw	33
  3158  0201  0020               	movlb	0	; select bank0
  3159  0202  0098               	movwf	24	;volatile
  3160  0203  0008               	return
  3161  0204                     __end_of_timer1_init:	
  3162  0204                     PL2:	
  3163  0204  0084               	movwf	4
  3164  0205  0800               	movf	0,w
  3165  0206  0020               	movlb	0	; select bank0
  3166  0207  00E3               	movwf	??_DMX_loop
  3167  0208  01E4               	clrf	??_DMX_loop+1
  3168  0209  0864               	movf	??_DMX_loop+1,w
  3169  020A  00E6               	movwf	??_DMX_loop+3
  3170  020B  0801               	movf	1,w
  3171  020C  0263               	subwf	??_DMX_loop,w
  3172  020D  00E5               	movwf	??_DMX_loop+2
  3173  020E  1C03               	skipc
  3174  020F  03E6               	decf	??_DMX_loop+3,f
  3175  0210  0866               	movf	??_DMX_loop+3,w
  3176  0211  3A80               	xorlw	128
  3177  0212  00E7               	movwf	??_DMX_loop+4
  3178  0213  3080               	movlw	128
  3179  0214  0267               	subwf	??_DMX_loop+4,w
  3180  0215  1D03               	skipz
  3181  0216  2A19               	goto	u1005
  3182  0217  0879               	movf	_DMXPeriod,w
  3183  0218  0265               	subwf	??_DMX_loop+2,w
  3184  0219                     u1005:	
  3185  0219  0874               	movf	DMX_loop@Addr,w
  3186  021A  0008               	return
  3187  021B                     __end_ofPL2:	
  3188  021B                     PL4:	
  3189  021B  0874               	movf	DMX_loop@Addr,w
  3190  021C  3E3B               	addlw	(low (_DMXPeriodStepConst| 0))& (0+255)
  3191  021D  0086               	movwf	6
  3192  021E  0874               	movf	DMX_loop@Addr,w
  3193  021F  3E68               	addlw	(low (_DMXPeriodStep| 0))& (0+255)
  3194  0220  0084               	movwf	4
  3195  0221  0185               	clrf	5
  3196  0222  0800               	movf	0,w
  3197  0223  0081               	movwf	1
  3198  0224  0874               	movf	DMX_loop@Addr,w
  3199  0225  3E3F               	addlw	(low (_RGBW| 0))& (0+255)
  3200  0226  0086               	movwf	6
  3201  0227  0008               	return
  3202  0228                     __end_ofPL4:	
  3203  0228                     PL6:	
  3204  0228  0086               	movwf	6
  3205  0229  3F40               	moviw [0]fsr1
  3206  022A  00E6               	movwf	??_DMX_loop+3
  3207  022B  3F41               	moviw [1]fsr1
  3208  022C  00E7               	movwf	??_DMX_loop+4
  3209  022D  0866               	movf	??_DMX_loop+3,w
  3210  022E  0086               	movwf	6
  3211  022F  0867               	movf	??_DMX_loop+4,w
  3212  0230  0087               	movwf	7
  3213  0231  0865               	movf	??_DMX_loop+2,w
  3214  0232  0081               	movwf	1
  3215  0233  0008               	return
  3216  0234                     __end_ofPL6:	
  3217  0234                     PL8:	
  3218  0234  0086               	movwf	6
  3219  0235  0187               	clrf	7
  3220  0236  0874               	movf	DMX_loop@Addr,w
  3221  0237  3E3F               	addlw	(low (_RGBW| 0))& (0+255)
  3222  0238  0084               	movwf	4
  3223  0239  0185               	clrf	5
  3224  023A  0800               	movf	0,w
  3225  023B  0008               	return
  3226  023C                     __end_ofPL8:	
  3227  023C                     PL10:	
  3228  023C  0086               	movwf	6
  3229  023D  0187               	clrf	7
  3230  023E  0874               	movf	DMX_loop@Addr,w
  3231  023F  3E57               	addlw	(low (_RxData| 0))& (0+255)
  3232  0240  0084               	movwf	4
  3233  0241  0185               	clrf	5
  3234  0242  0800               	movf	0,w
  3235  0243  0008               	return
  3236  0244                     __end_ofPL10:	
  3237  0244                     PL12:	
  3238  0244  3E37               	addlw	(low (_DMXPeriodSign| 0))& (0+255)
  3239  0245  0086               	movwf	6
  3240  0246  30FC               	movlw	-4
  3241  0247  0187               	clrf	7
  3242  0248  0581               	andwf	1,f
  3243  0249  0008               	return
  3244  024A                     __end_ofPL12:	
  3245  024A                     PL14:	
  3246  024A  0874               	movf	DMX_loop@Addr,w
  3247  024B  3E3F               	addlw	(low (_RGBW| 0))& (0+255)
  3248  024C  0086               	movwf	6
  3249  024D  0187               	clrf	7
  3250  024E  0801               	movf	1,w
  3251  024F  0008               	return
  3252  0250                     __end_ofPL14:	
  3253  0250                     PL16:	
  3254  0250  0874               	movf	DMX_loop@Addr,w
  3255  0251  3E3B               	addlw	(low (_DMXPeriodStepConst| 0))& (0+255)
  3256  0252  0086               	movwf	6
  3257  0253  0187               	clrf	7
  3258  0254  0801               	movf	1,w
  3259  0255  0008               	return
  3260  0256                     __end_ofPL16:	
  3261  0256                     PL18:	
  3262  0256  3D64               	addwfc	??_DMX_loop+1,w
  3263  0257  0085               	movwf	5
  3264  0258  0800               	movf	0,w	;code access
  3265  0259  00E5               	movwf	??_DMX_loop+2
  3266  025A  3574               	lslf	DMX_loop@Addr,w
  3267  025B  0008               	return
  3268  025C                     __end_ofPL18:	
  3269  025C                     PL20:	
  3270  025C  01E4               	clrf	??_DMX_loop+1
  3271  025D  35E3               	lslf	??_DMX_loop,f
  3272  025E  0DE4               	rlf	??_DMX_loop+1,f
  3273  025F  0763               	addwf	??_DMX_loop,w
  3274  0260  0084               	movwf	4
  3275  0261  0008               	return
  3276  0262                     __end_ofPL20:	
  3277                           
  3278                           	psect	bssCOMMON
  3279  0075                     __pbssCOMMON:	
  3280  0075                     _PackCount:	
  3281  0075                     	ds	1
  3282  0076                     _PDCount:	
  3283  0076                     	ds	1
  3284  0077                     _DMXPeriodConst:	
  3285  0077                     	ds	1
  3286  0078                     _RxState:	
  3287  0078                     	ds	1
  3288                           
  3289                           	psect	dataCOMMON
  3290  0079                     __pdataCOMMON:	
  3291  0079                     _DMXPeriod:	
  3292  0079                     	ds	1
  3293                           
  3294                           	psect	bssBANK0
  3295  0020                     __pbssBANK0:	
  3296  0020                     _PWMDCHptr:	
  3297  0020                     	ds	8
  3298  0028                     _PWMDCLptr:	
  3299  0028                     	ds	8
  3300  0030                     _Timer:	
  3301  0030                     	ds	7
  3302  0037                     _DMXPeriodSign:	
  3303  0037                     	ds	4
  3304  003B                     _DMXPeriodStepConst:	
  3305  003B                     	ds	4
  3306  003F                     _RGBW:	
  3307  003F                     	ds	4
  3308  0043                     _PD_Flag:	
  3309  0043                     	ds	2
  3310  0045                     _PD_ID:	
  3311  0045                     	ds	2
  3312  0047                     _PD_Manu:	
  3313  0047                     	ds	2
  3314  0049                     _i:	
  3315  0049                     	ds	2
  3316  004B                     _DMX_Flags:	
  3317  004B                     	ds	2
  3318  004D                     _RxTimer:	
  3319  004D                     	ds	2
  3320  004F                     _RxAddrCount:	
  3321  004F                     	ds	2
  3322  0051                     _ADC_Flags:	
  3323  0051                     	ds	1
  3324  0052                     _ADC_Data:	
  3325  0052                     	ds	1
  3326  0053                     _TimerState:	
  3327  0053                     	ds	1
  3328  0054                     _TxState:	
  3329  0054                     	ds	1
  3330  0055                     _TxByte:	
  3331  0055                     	ds	1
  3332  0056                     _RxDataPtr:	
  3333  0056                     	ds	1
  3334  0057                     _RxData:	
  3335  0057                     	ds	4
  3336                           
  3337                           	psect	dataBANK0
  3338  0068                     __pdataBANK0:	
  3339  0068                     _DMXPeriodStep:	
  3340  0068                     	ds	4
  3341                           
  3342                           	psect	bssBANK1
  3343  00A0                     __pbssBANK1:	
  3344  00A0                     _RX_RDM_Data:	
  3345  00A0                     	ds	24
  3346  00B8                     _PWMLDCONptr:	
  3347  00B8                     	ds	8
  3348  00C0                     _DISCOVERY_RDM_Data:	
  3349  00C0                     	ds	24
  3350                           
  3351                           	psect	dataBANK1
  3352  00D8                     __pdataBANK1:	
  3353  00D8                     _TX_RDM_Data:	
  3354  00D8                     	ds	24
  3355                           
  3356                           	psect	inittext
  3357  05C0                     init_ram:	
  3358  05C0  00FE               	movwf	126
  3359  05C1                     initloop:	
  3360  05C1  0012               	moviw fsr0++
  3361  05C2  001E               	movwi fsr1++
  3362  05C3  3001               	movlw	1
  3363  05C4  02FE               	subwf	126,f
  3364  05C5  3000               	movlw	0
  3365  05C6  3BFF               	subwfb	127,f
  3366  05C7  087F               	movf	127,w
  3367  05C8  047E               	iorwf	126,w
  3368  05C9  1903               	btfsc	3,2
  3369  05CA  3400               	retlw	0
  3370  05CB  2DC1               	goto	initloop
  3371                           
  3372                           	psect	clrtext
  3373  05CC                     clear_ram0:	
  3374                           ;	Called with FSR0 containing the base address, and
  3375                           ;	btemp/btemp+1 has the size to clear
  3376                           
  3377  05CC  0064               	clrwdt	;clear the watchdog before getting into this loop
  3378  05CD                     clrloop0:	
  3379  05CD  3001               	movlw	1
  3380  05CE  0180               	clrf	0	;clear RAM location pointed to by FSR
  3381  05CF  3101               	addfsr 0,1
  3382  05D0  02FE               	subwf	126,f
  3383  05D1  3000               	movlw	0
  3384  05D2  3BFF               	subwfb	127,f
  3385  05D3  087F               	movf	127,w
  3386  05D4  047E               	iorwf	126,w
  3387  05D5  1903               	btfsc	3,2
  3388  05D6  3400               	retlw	0	;all done for this memory range, return
  3389  05D7  2DCD               	goto	clrloop0	;have we reached the end yet?
  3390                           
  3391                           	psect	cstackCOMMON
  3392  0070                     __pcstackCOMMON:	
  3393  0070                     ?_DMX_init:	
  3394  0070                     ?_DMX_loop:	
  3395                           ; 1 bytes @ 0x0
  3396                           
  3397  0070                     ??_DMX_interrput:	
  3398                           ; 1 bytes @ 0x0
  3399                           
  3400  0070                     ??_timer1_interrupt:	
  3401                           ; 1 bytes @ 0x0
  3402                           
  3403  0070                     ?_main:	
  3404                           ; 1 bytes @ 0x0
  3405                           
  3406  0070                     ?_isr:	
  3407                           ; 1 bytes @ 0x0
  3408                           
  3409  0070                     ?_timer1_init:	
  3410                           ; 1 bytes @ 0x0
  3411                           
  3412  0070                     ?_DMX_interrput:	
  3413                           ; 2 bytes @ 0x0
  3414                           
  3415  0070                     ?_timer1_interrupt:	
  3416                           ; 2 bytes @ 0x0
  3417                           
  3418                           
  3419                           ; 2 bytes @ 0x0
  3420  0070                     	ds	3
  3421  0073                     DMX_interrput@RxDat:	
  3422                           
  3423                           ; 1 bytes @ 0x3
  3424  0073                     	ds	1
  3425  0074                     ??_DMX_init:	
  3426  0074                     ??_timer1_init:	
  3427                           ; 1 bytes @ 0x4
  3428                           
  3429  0074                     ??_isr:	
  3430                           ; 1 bytes @ 0x4
  3431                           
  3432  0074                     ??___awdiv:	
  3433                           ; 1 bytes @ 0x4
  3434                           
  3435  0074                     DMX_loop@Addr:	
  3436                           ; 1 bytes @ 0x4
  3437                           
  3438                           
  3439                           ; 1 bytes @ 0x4
  3440  0074                     	ds	1
  3441  0075                     ??_main:	
  3442                           
  3443                           	psect	cstackBANK0
  3444  005B                     __pcstackBANK0:	
  3445                           ; 1 bytes @ 0x5
  3446                           
  3447  005B                     ?___awdiv:	
  3448  005B                     ___awdiv@divisor:	
  3449                           ; 2 bytes @ 0x0
  3450                           
  3451                           
  3452                           ; 2 bytes @ 0x0
  3453  005B                     	ds	2
  3454  005D                     ___awdiv@dividend:	
  3455                           
  3456                           ; 2 bytes @ 0x2
  3457  005D                     	ds	2
  3458  005F                     ___awdiv@counter:	
  3459                           
  3460                           ; 1 bytes @ 0x4
  3461  005F                     	ds	1
  3462  0060                     ___awdiv@sign:	
  3463                           
  3464                           ; 1 bytes @ 0x5
  3465  0060                     	ds	1
  3466  0061                     ___awdiv@quotient:	
  3467                           
  3468                           ; 2 bytes @ 0x6
  3469  0061                     	ds	2
  3470  0063                     ??_DMX_loop:	
  3471                           
  3472                           ; 1 bytes @ 0x8
  3473  0063                     	ds	5
  3474                           
  3475                           	psect	intentry
  3476  0004                     __pintentry:	
  3477 ;; *************** function _isr *****************
  3478 ;; Defined at:
  3479 ;;		line 86 in file "main.c"
  3480 ;; Parameters:    Size  Location     Type
  3481 ;;		None
  3482 ;; Auto vars:     Size  Location     Type
  3483 ;;		None
  3484 ;; Return value:  Size  Location     Type
  3485 ;;                  1    wreg      void 
  3486 ;; Registers used:
  3487 ;;		wreg, fsr0l, fsr0h, fsr1l, fsr1h, status,2, status,0, pclath, cstack
  3488 ;; Tracked objects:
  3489 ;;		On entry : 0/0
  3490 ;;		On exit  : 1E/0
  3491 ;;		Unchanged: 0/0
  3492 ;; Data sizes:     COMMON   BANK0   BANK1   BANK2   BANK3   BANK4   BANK5   BANK6
  3493 ;;      Params:         0       0       0       0       0       0       0       0
  3494 ;;      Locals:         0       0       0       0       0       0       0       0
  3495 ;;      Temps:          0       0       0       0       0       0       0       0
  3496 ;;      Totals:         0       0       0       0       0       0       0       0
  3497 ;;Total ram usage:        0 bytes
  3498 ;; Hardware stack levels used:    1
  3499 ;; Hardware stack levels required when called:    1
  3500 ;; This function calls:
  3501 ;;		_DMX_interrput
  3502 ;;		_timer1_interrupt
  3503 ;; This function is called by:
  3504 ;;		Interrupt level 1
  3505 ;; This function uses a non-reentrant model
  3506 ;;
  3507                           
  3508  0004                     _isr:	
  3509                           
  3510                           ;incstack = 0
  3511  0004  147E               	bsf	126,0	;set compiler interrupt flag (level 1)
  3512                           
  3513                           ; Regs used in _isr: [wreg-fsr1h+status,2+status,0+pclath+cstack]
  3514  0005  3180               	pagesel	$
  3515                           
  3516                           ;main.c: 89: DMX_interrput();
  3517  0006  3184  2462  3180   	fcall	_DMX_interrput
  3518                           
  3519                           ;main.c: 90: timer1_interrupt();
  3520  0009  3185  2548         	fcall	_timer1_interrupt
  3521  000B  107E               	bcf	126,0	;clear compiler interrupt flag (level 1)
  3522  000C  0009               	retfie
  3523  000D                     __end_of_isr:	
  3524                           
  3525                           	psect	text6
  3526  0548                     __ptext6:	
  3527 ;; *************** function _timer1_interrupt *****************
  3528 ;; Defined at:
  3529 ;;		line 21 in file "Timer.c"
  3530 ;; Parameters:    Size  Location     Type
  3531 ;;		None
  3532 ;; Auto vars:     Size  Location     Type
  3533 ;;		None
  3534 ;; Return value:  Size  Location     Type
  3535 ;;                  2   96[None  ] int 
  3536 ;; Registers used:
  3537 ;;		wreg, fsr0l, fsr0h, status,2, status,0
  3538 ;; Tracked objects:
  3539 ;;		On entry : 0/0
  3540 ;;		On exit  : 1E/0
  3541 ;;		Unchanged: 0/0
  3542 ;; Data sizes:     COMMON   BANK0   BANK1   BANK2   BANK3   BANK4   BANK5   BANK6
  3543 ;;      Params:         0       0       0       0       0       0       0       0
  3544 ;;      Locals:         0       0       0       0       0       0       0       0
  3545 ;;      Temps:          1       0       0       0       0       0       0       0
  3546 ;;      Totals:         1       0       0       0       0       0       0       0
  3547 ;;Total ram usage:        1 bytes
  3548 ;; Hardware stack levels used:    1
  3549 ;; This function calls:
  3550 ;;		Nothing
  3551 ;; This function is called by:
  3552 ;;		_isr
  3553 ;; This function uses a non-reentrant model
  3554 ;;
  3555                           
  3556                           
  3557                           ;psect for function _timer1_interrupt
  3558  0548                     _timer1_interrupt:	
  3559                           
  3560                           ;Timer.c: 22: if (TMR1IE && TMR1IF) {
  3561                           
  3562                           ;incstack = 0
  3563                           ; Regs used in _timer1_interrupt: [wreg-fsr0h+status,2+status,0]
  3564  0548  0021               	movlb	1	; select bank1
  3565  0549  1C11               	btfss	17,0	;volatile
  3566  054A  0008               	return
  3567  054B  0020               	movlb	0	; select bank0
  3568  054C  1C11               	btfss	17,0	;volatile
  3569  054D  0008               	return
  3570                           
  3571                           ;Timer.c: 23: TMR1IF = 0;
  3572  054E  1011               	bcf	17,0	;volatile
  3573                           
  3574                           ;Timer.c: 24: switch (TimerState) {
  3575  054F  2D9F               	goto	i1l1967
  3576  0550                     i1l1923:	
  3577                           
  3578                           ;Timer.c: 26: TimerState = TIMER_500US;
  3579  0550  01D3               	clrf	_TimerState	;volatile
  3580  0551                     i1l1925:	
  3581                           
  3582                           ;Timer.c: 37: if(ADIE==RA5){
  3583  0551  1E8C               	btfss	12,5	;volatile
  3584  0552  2D55               	goto	u84_20
  3585  0553  3001               	movlw	1
  3586  0554  2D56               	goto	u84_22
  3587  0555                     u84_20:	
  3588  0555  3000               	movlw	0
  3589  0556                     u84_22:	
  3590  0556  00F0               	movwf	??_timer1_interrupt
  3591  0557  0021               	movlb	1	; select bank1
  3592  0558  1F11               	btfss	17,6	;volatile
  3593  0559  2D5C               	goto	u85_20
  3594  055A  3001               	movlw	1
  3595  055B  2D5D               	goto	u85_22
  3596  055C                     u85_20:	
  3597  055C  3000               	movlw	0
  3598  055D                     u85_22:	
  3599  055D  0670               	xorwf	??_timer1_interrupt,w
  3600  055E  1D03               	skipz
  3601  055F  2D62               	goto	i1l771
  3602                           
  3603                           ;Timer.c: 38: Timer.Switch=1;
  3604  0560  0020               	movlb	0	; select bank0
  3605  0561  1436               	bsf	_Timer+6,0	;volatile
  3606  0562                     i1l771:	
  3607                           
  3608                           ;Timer.c: 39: }
  3609                           ;Timer.c: 40: TMR1 = 0xFE0B;
  3610  0562  30FE               	movlw	254
  3611  0563  0020               	movlb	0	; select bank0
  3612  0564  0097               	movwf	23	;volatile
  3613  0565  300B               	movlw	11
  3614  0566  0096               	movwf	22	;volatile
  3615                           
  3616                           ;Timer.c: 41: RxTimer++;
  3617  0567  0ACD               	incf	_RxTimer,f	;volatile
  3618  0568  1903               	skipnz
  3619  0569  0ACE               	incf	_RxTimer+1,f	;volatile
  3620                           
  3621                           ;Timer.c: 42: if (RxTimer == 2400) {
  3622  056A  3060               	movlw	96
  3623  056B  064D               	xorwf	_RxTimer,w	;volatile
  3624  056C  3009               	movlw	9
  3625  056D  1903               	skipnz
  3626  056E  064E               	xorwf	_RxTimer+1,w	;volatile
  3627  056F  1D03               	btfss	3,2
  3628  0570  2D76               	goto	i1l1937
  3629                           
  3630                           ;Timer.c: 43: RxTimer = 2400 + 1;
  3631  0571  3061               	movlw	97
  3632  0572  00CD               	movwf	_RxTimer	;volatile
  3633  0573  3009               	movlw	9
  3634  0574  00CE               	movwf	_RxTimer+1	;volatile
  3635                           
  3636                           ;Timer.c: 44: DMX_Flags.RxTimeout = 1;
  3637  0575  15CB               	bsf	_DMX_Flags,3	;volatile
  3638  0576                     i1l1937:	
  3639                           
  3640                           ;Timer.c: 45: }
  3641                           ;Timer.c: 47: Timer.MS_Count++;
  3642  0576  0AB1               	incf	_Timer+1,f	;volatile
  3643  0577  1903               	skipnz
  3644  0578  0AB2               	incf	_Timer+2,f	;volatile
  3645                           
  3646                           ;Timer.c: 48: Timer.MS = 1;
  3647  0579  1430               	bsf	_Timer,0	;volatile
  3648                           
  3649                           ;Timer.c: 49: if (Timer.MS_Count == 1000)
  3650  057A  30E8               	movlw	232
  3651  057B  0631               	xorwf	_Timer+1,w	;volatile
  3652  057C  3003               	movlw	3
  3653  057D  1903               	skipnz
  3654  057E  0632               	xorwf	_Timer+2,w	;volatile
  3655  057F  1D03               	btfss	3,2
  3656  0580  0008               	return
  3657                           
  3658                           ;Timer.c: 50: {
  3659                           ;Timer.c: 51: Timer.MS_Count = 0;
  3660  0581  01B1               	clrf	_Timer+1	;volatile
  3661  0582  01B2               	clrf	_Timer+2	;volatile
  3662                           
  3663                           ;Timer.c: 52: Timer.SEC_Count++;
  3664  0583  0AB3               	incf	_Timer+3,f	;volatile
  3665                           
  3666                           ;Timer.c: 53: Timer.SEC = 1;
  3667  0584  14B0               	bsf	_Timer,1	;volatile
  3668                           
  3669                           ;Timer.c: 54: if (Timer.SEC_Count == 60)
  3670  0585  303C               	movlw	60
  3671  0586  0633               	xorwf	_Timer+3,w	;volatile
  3672  0587  1D03               	btfss	3,2
  3673  0588  0008               	return
  3674                           
  3675                           ;Timer.c: 55: {
  3676                           ;Timer.c: 56: Timer.SEC_Count = 0;
  3677  0589  01B3               	clrf	_Timer+3	;volatile
  3678                           
  3679                           ;Timer.c: 57: Timer.MIN_Count++;
  3680  058A  0AB4               	incf	_Timer+4,f	;volatile
  3681                           
  3682                           ;Timer.c: 58: Timer.MIN = 1;
  3683  058B  1530               	bsf	_Timer,2	;volatile
  3684                           
  3685                           ;Timer.c: 60: if (Timer.MIN_Count == 60)
  3686  058C  303C               	movlw	60
  3687  058D  0634               	xorwf	_Timer+4,w	;volatile
  3688  058E  1D03               	btfss	3,2
  3689  058F  0008               	return
  3690                           
  3691                           ;Timer.c: 61: {
  3692                           ;Timer.c: 62: Timer.MIN_Count = 0;
  3693  0590  01B4               	clrf	_Timer+4	;volatile
  3694                           
  3695                           ;Timer.c: 63: Timer.HR_Count++;
  3696  0591  0AB5               	incf	_Timer+5,f	;volatile
  3697                           
  3698                           ;Timer.c: 64: Timer.HR = 1;
  3699  0592  15B0               	bsf	_Timer,3	;volatile
  3700  0593  0008               	return
  3701  0594                     i1l777:	
  3702                           ;Timer.c: 77: case TIMER_MAB:
  3703                           
  3704                           
  3705                           ;Timer.c: 78: TXEN = 1;
  3706  0594  0023               	movlb	3	; select bank3
  3707  0595  169E               	bsf	30,5	;volatile
  3708                           
  3709                           ;Timer.c: 79: TXIE = 1;
  3710  0596  0021               	movlb	1	; select bank1
  3711  0597  1611               	bsf	17,4	;volatile
  3712                           
  3713                           ;Timer.c: 80: TMR1 = 0xFCDF;
  3714  0598  30FC               	movlw	252
  3715  0599  0020               	movlb	0	; select bank0
  3716  059A  0097               	movwf	23	;volatile
  3717  059B  30DF               	movlw	223
  3718  059C  0096               	movwf	22	;volatile
  3719                           
  3720                           ;Timer.c: 81: TimerState = TIMER_500US;
  3721  059D  01D3               	clrf	_TimerState	;volatile
  3722                           
  3723                           ;Timer.c: 82: break;
  3724  059E  0008               	return
  3725  059F                     i1l1967:	
  3726  059F  0853               	movf	_TimerState,w	;volatile
  3727                           
  3728                           ; Switch size 1, requested type "space"
  3729                           ; Number of cases is 2, Range of values is 0 to 1
  3730                           ; switch strategies available:
  3731                           ; Name         Instructions Cycles
  3732                           ; simple_byte            7     4 (average)
  3733                           ; direct_byte           10     6 (fixed)
  3734                           ; jumptable            260     6 (fixed)
  3735                           ;	Chosen strategy is simple_byte
  3736  05A0  3A00               	xorlw	0	; case 0
  3737  05A1  1903               	skipnz
  3738  05A2  2D51               	goto	i1l1925
  3739  05A3  3A01               	xorlw	1	; case 1
  3740  05A4  1903               	skipnz
  3741  05A5  2D94               	goto	i1l777
  3742  05A6  2D50               	goto	i1l1923
  3743  05A7  0008               	return
  3744  05A8                     __end_of_timer1_interrupt:	
  3745                           
  3746                           	psect	text7
  3747  0462                     __ptext7:	
  3748 ;; *************** function _DMX_interrput *****************
  3749 ;; Defined at:
  3750 ;;		line 135 in file "DMX.c"
  3751 ;; Parameters:    Size  Location     Type
  3752 ;;		None
  3753 ;; Auto vars:     Size  Location     Type
  3754 ;;  RxDat           1    3[COMMON] volatile unsigned char 
  3755 ;; Return value:  Size  Location     Type
  3756 ;;                  2   94[None  ] int 
  3757 ;; Registers used:
  3758 ;;		wreg, fsr0l, fsr0h, fsr1l, fsr1h, status,2, status,0
  3759 ;; Tracked objects:
  3760 ;;		On entry : 0/0
  3761 ;;		On exit  : 0/0
  3762 ;;		Unchanged: 0/0
  3763 ;; Data sizes:     COMMON   BANK0   BANK1   BANK2   BANK3   BANK4   BANK5   BANK6
  3764 ;;      Params:         0       0       0       0       0       0       0       0
  3765 ;;      Locals:         1       0       0       0       0       0       0       0
  3766 ;;      Temps:          3       0       0       0       0       0       0       0
  3767 ;;      Totals:         4       0       0       0       0       0       0       0
  3768 ;;Total ram usage:        4 bytes
  3769 ;; Hardware stack levels used:    1
  3770 ;; This function calls:
  3771 ;;		Nothing
  3772 ;; This function is called by:
  3773 ;;		_isr
  3774 ;; This function uses a non-reentrant model
  3775 ;;
  3776                           
  3777                           
  3778                           ;psect for function _DMX_interrput
  3779  0462                     _DMX_interrput:	
  3780                           
  3781                           ;DMX.c: 137: if (RCIE & RCIF) {
  3782                           
  3783                           ;incstack = 0
  3784                           ; Regs used in _DMX_interrput: [wreg-fsr1h+status,2+status,0]
  3785  0462  3001               	movlw	1
  3786  0463  0021               	movlb	1	; select bank1
  3787  0464  1E91               	btfss	17,5	;volatile
  3788  0465  3900               	andlw	0
  3789  0466  0020               	movlb	0	; select bank0
  3790  0467  1E91               	btfss	17,5	;volatile
  3791  0468  3900               	andlw	0
  3792  0469  1C09               	btfss	9,0
  3793  046A  0008               	return
  3794                           
  3795                           ;DMX.c: 139: volatile char RxDat;
  3796                           ;DMX.c: 140: if (FERR)
  3797  046B  0023               	movlb	3	; select bank3
  3798  046C  1D1D               	btfss	29,2	;volatile
  3799  046D  2D28               	goto	i1l1903
  3800                           
  3801                           ;DMX.c: 141: {
  3802                           ;DMX.c: 142: RxDat = RCREG;
  3803  046E  0819               	movf	25,w	;volatile
  3804  046F  00F3               	movwf	DMX_interrput@RxDat	;volatile
  3805                           
  3806                           ;DMX.c: 143: DMX_Flags.RxBreak = 1;
  3807  0470  0020               	movlb	0	; select bank0
  3808  0471  14CB               	bsf	_DMX_Flags,1	;volatile
  3809                           
  3810                           ;DMX.c: 144: RxState = WAIT_FOR_START;
  3811  0472  3001               	movlw	1
  3812  0473  00F8               	movwf	_RxState	;volatile
  3813                           
  3814                           ;DMX.c: 145: RxTimer = 0;
  3815  0474  01CD               	clrf	_RxTimer	;volatile
  3816  0475  01CE               	clrf	_RxTimer+1	;volatile
  3817  0476  2D28               	goto	i1l1903
  3818  0477                     i1l1821:	
  3819                           
  3820                           ;DMX.c: 149: RxDat = RCREG;
  3821  0477  0023               	movlb	3	; select bank3
  3822  0478  0819               	movf	25,w	;volatile
  3823  0479  00F3               	movwf	DMX_interrput@RxDat	;volatile
  3824                           
  3825                           ;DMX.c: 150: break;
  3826  047A  2D32               	goto	i1l1905
  3827  047B                     i1l323:	
  3828                           ;DMX.c: 151: case WAIT_FOR_START:
  3829                           
  3830                           
  3831                           ;DMX.c: 152: if (RCIF)
  3832  047B  0020               	movlb	0	; select bank0
  3833  047C  1E91               	btfss	17,5	;volatile
  3834  047D  2D32               	goto	i1l1905
  3835                           
  3836                           ;DMX.c: 153: {
  3837                           ;DMX.c: 154: RxDat = RCREG;
  3838  047E  0023               	movlb	3	; select bank3
  3839  047F  0819               	movf	25,w	;volatile
  3840  0480  00F3               	movwf	DMX_interrput@RxDat	;volatile
  3841  0481  0873               	movf	DMX_interrput@RxDat,w	;volatile
  3842  0482  1D03               	btfss	3,2
  3843  0483  2C91               	goto	i1l1833
  3844                           
  3845                           ;DMX.c: 157: RxState = RX_DMX_READ_DATA;
  3846  0484  3002               	movlw	2
  3847  0485  00F8               	movwf	_RxState	;volatile
  3848                           
  3849                           ;DMX.c: 158: RxDataPtr = &RxData[0];
  3850  0486  3057               	movlw	(low (_RxData| 0))& (0+255)
  3851  0487  0020               	movlb	0	; select bank0
  3852  0488  00D6               	movwf	_RxDataPtr
  3853                           
  3854                           ;DMX.c: 159: RxAddrCount = 1;
  3855  0489  3001               	movlw	1
  3856  048A  00CF               	movwf	_RxAddrCount	;volatile
  3857  048B  01D0               	clrf	_RxAddrCount+1	;volatile
  3858                           
  3859                           ;DMX.c: 160: DMX_Flags.RxStart = 1;
  3860  048C  154B               	bsf	_DMX_Flags,2	;volatile
  3861                           
  3862                           ;DMX.c: 161: DMXPeriod = DMXPeriodConst;
  3863  048D  0877               	movf	_DMXPeriodConst,w	;volatile
  3864  048E  00F9               	movwf	_DMXPeriod
  3865                           
  3866                           ;DMX.c: 162: DMXPeriodConst = 0;
  3867  048F  01F7               	clrf	_DMXPeriodConst	;volatile
  3868                           
  3869                           ;DMX.c: 163: } else if (RxDat == RDM_StartCode) {
  3870  0490  2D32               	goto	i1l1905
  3871  0491                     i1l1833:	
  3872  0491  30CC               	movlw	204
  3873  0492  0673               	xorwf	DMX_interrput@RxDat,w	;volatile
  3874  0493  1D03               	btfss	3,2
  3875  0494  2C9A               	goto	i1l1839
  3876                           
  3877                           ;DMX.c: 165: RxState = RX_RDM_READ_SubStartCode;
  3878  0495  3003               	movlw	3
  3879  0496  00F8               	movwf	_RxState	;volatile
  3880                           
  3881                           ;DMX.c: 166: DMX_Flags.RxStart = 1;
  3882  0497  0020               	movlb	0	; select bank0
  3883  0498  154B               	bsf	_DMX_Flags,2	;volatile
  3884                           
  3885                           ;DMX.c: 167: } else {
  3886  0499  2D32               	goto	i1l1905
  3887  049A                     i1l1839:	
  3888                           
  3889                           ;DMX.c: 168: RxState = RX_WAIT_FOR_BREAK;
  3890  049A  01F8               	clrf	_RxState	;volatile
  3891  049B  2D32               	goto	i1l1905
  3892  049C                     i1l1841:	
  3893                           
  3894                           ;DMX.c: 173: RxDat = RCREG;
  3895  049C  0023               	movlb	3	; select bank3
  3896  049D  0819               	movf	25,w	;volatile
  3897  049E  00F3               	movwf	DMX_interrput@RxDat	;volatile
  3898                           
  3899                           ;DMX.c: 174: if (RxAddrCount >= DMX_Address && (DMX_Address != 0))
  3900  049F  0020               	movlb	0	; select bank0
  3901  04A0  0850               	movf	_RxAddrCount+1,w	;volatile
  3902  04A1  3A80               	xorlw	128
  3903  04A2  00F0               	movwf	??_DMX_interrput
  3904  04A3  086D               	movf	_DMX_Address+1,w
  3905  04A4  3A80               	xorlw	128
  3906  04A5  0270               	subwf	??_DMX_interrput,w
  3907  04A6  1D03               	skipz
  3908  04A7  2CAA               	goto	u71_25
  3909  04A8  086C               	movf	_DMX_Address,w
  3910  04A9  024F               	subwf	_RxAddrCount,w	;volatile
  3911  04AA                     u71_25:	
  3912  04AA  1C03               	skipc
  3913  04AB  2CB7               	goto	i1l1849
  3914  04AC  0020               	movlb	0	; select bank0
  3915  04AD  086C               	movf	_DMX_Address,w
  3916  04AE  046D               	iorwf	_DMX_Address+1,w
  3917  04AF  1903               	btfsc	3,2
  3918  04B0  2CB7               	goto	i1l1849
  3919                           
  3920                           ;DMX.c: 175: {
  3921                           ;DMX.c: 176: *RxDataPtr = RxDat;
  3922  04B1  0856               	movf	_RxDataPtr,w
  3923  04B2  0086               	movwf	6
  3924  04B3  0187               	clrf	7
  3925  04B4  0873               	movf	DMX_interrput@RxDat,w	;volatile
  3926  04B5  0081               	movwf	1
  3927                           
  3928                           ;DMX.c: 177: RxDataPtr++;
  3929  04B6  0AD6               	incf	_RxDataPtr,f
  3930  04B7                     i1l1849:	
  3931                           
  3932                           ;DMX.c: 178: }
  3933                           ;DMX.c: 179: RxAddrCount++;
  3934  04B7  0020               	movlb	0	; select bank0
  3935  04B8  0ACF               	incf	_RxAddrCount,f	;volatile
  3936  04B9  1903               	skipnz
  3937  04BA  0AD0               	incf	_RxAddrCount+1,f	;volatile
  3938                           
  3939                           ;DMX.c: 181: if (RxAddrCount >= (DMX_Address + 4) && DMX_Address != 0) {
  3940  04BB  086C               	movf	_DMX_Address,w
  3941  04BC  3E04               	addlw	4
  3942  04BD  00F0               	movwf	??_DMX_interrput
  3943  04BE  3000               	movlw	0
  3944  04BF  3D6D               	addwfc	_DMX_Address+1,w
  3945  04C0  00F1               	movwf	??_DMX_interrput+1
  3946  04C1  0850               	movf	_RxAddrCount+1,w	;volatile
  3947  04C2  3A80               	xorlw	128
  3948  04C3  00F2               	movwf	??_DMX_interrput+2
  3949  04C4  0871               	movf	??_DMX_interrput+1,w
  3950  04C5  3A80               	xorlw	128
  3951  04C6  0272               	subwf	??_DMX_interrput+2,w
  3952  04C7  1D03               	skipz
  3953  04C8  2CCB               	goto	u73_25
  3954  04C9  0870               	movf	??_DMX_interrput,w
  3955  04CA  024F               	subwf	_RxAddrCount,w	;volatile
  3956  04CB                     u73_25:	
  3957  04CB  1C03               	skipc
  3958  04CC  2D32               	goto	i1l1905
  3959  04CD  0020               	movlb	0	; select bank0
  3960  04CE  086C               	movf	_DMX_Address,w
  3961  04CF  046D               	iorwf	_DMX_Address+1,w
  3962  04D0  1903               	btfsc	3,2
  3963  04D1  2D32               	goto	i1l1905
  3964                           
  3965                           ;DMX.c: 182: DMX_Flags.RxNew = 1;
  3966  04D2  144B               	bsf	_DMX_Flags,0	;volatile
  3967                           
  3968                           ;DMX.c: 183: RxState = RX_WAIT_FOR_BREAK;
  3969                           
  3970                           ;DMX.c: 184: RxTimer = 0;
  3971                           
  3972                           ;DMX.c: 185: DMX_Flags.RxTimeout = 0;
  3973  04D3  2543  3184         	fcall	PL22	;call to abstracted procedure
  3974  04D5  2D32               	goto	i1l1905
  3975  04D6                     i1l1861:	
  3976                           
  3977                           ;DMX.c: 189: RxDat = RCREG;
  3978  04D6  0023               	movlb	3	; select bank3
  3979  04D7  0819               	movf	25,w	;volatile
  3980  04D8  00F3               	movwf	DMX_interrput@RxDat	;volatile
  3981  04D9  0B73               	decfsz	DMX_interrput@RxDat,w	;volatile
  3982  04DA  2D32               	goto	i1l1905
  3983                           
  3984                           ;DMX.c: 191: {
  3985                           ;DMX.c: 192: RxState = RX_RDM_READ_DATA;
  3986  04DB  3004               	movlw	4
  3987  04DC  00F8               	movwf	_RxState	;volatile
  3988                           
  3989                           ;DMX.c: 193: PackCount = 23;
  3990  04DD  3017               	movlw	23
  3991  04DE  00F5               	movwf	_PackCount	;volatile
  3992                           
  3993                           ;DMX.c: 194: PD_Flag = 0;
  3994  04DF  0020               	movlb	0	; select bank0
  3995  04E0  01C3               	clrf	_PD_Flag	;volatile
  3996  04E1  2D26               	goto	L8
  3997  04E2                     i1l1869:	
  3998                           
  3999                           ;DMX.c: 199: RxDat = RCREG;
  4000  04E2  0023               	movlb	3	; select bank3
  4001  04E3  0819               	movf	25,w	;volatile
  4002  04E4  00F3               	movwf	DMX_interrput@RxDat	;volatile
  4003                           
  4004                           ;DMX.c: 200: RX_RDM_Data.value[PackCount] = RxDat;
  4005  04E5  0875               	movf	_PackCount,w
  4006  04E6  3EA0               	addlw	(low (_RX_RDM_Data| 0))& (0+255)
  4007  04E7  0086               	movwf	6
  4008  04E8  0187               	clrf	7
  4009  04E9  0873               	movf	DMX_interrput@RxDat,w	;volatile
  4010  04EA  0081               	movwf	1
  4011                           
  4012                           ;DMX.c: 202: if (PackCount == 2 && RX_RDM_Data.PDL > 0 && PD_Flag == 0) {
  4013  04EB  3002               	movlw	2
  4014  04EC  0675               	xorwf	_PackCount,w	;volatile
  4015  04ED  1D03               	btfss	3,2
  4016  04EE  2CFD               	goto	i1l1881
  4017  04EF  0021               	movlb	1	; select bank1
  4018  04F0  0822               	movf	(_RX_RDM_Data^(0+128)+2),w	;volatile
  4019  04F1  1903               	btfsc	3,2
  4020  04F2  2CFD               	goto	i1l1881
  4021  04F3  0020               	movlb	0	; select bank0
  4022  04F4  0843               	movf	_PD_Flag,w	;volatile
  4023  04F5  0444               	iorwf	_PD_Flag+1,w	;volatile
  4024  04F6  1D03               	btfss	3,2
  4025  04F7  2CFD               	goto	i1l1881
  4026                           
  4027                           ;DMX.c: 203: RxState = RX_RDM_PD;
  4028  04F8  3005               	movlw	5
  4029  04F9  00F8               	movwf	_RxState	;volatile
  4030                           
  4031                           ;DMX.c: 204: PDCount = 230;
  4032  04FA  30E6               	movlw	230
  4033  04FB  00F6               	movwf	_PDCount
  4034                           
  4035                           ;DMX.c: 205: break;
  4036  04FC  2D32               	goto	i1l1905
  4037  04FD                     i1l1881:	
  4038                           
  4039                           ;DMX.c: 206: }
  4040                           ;DMX.c: 208: if (PackCount == 0) {
  4041  04FD  0875               	movf	_PackCount,w	;volatile
  4042  04FE  1D03               	btfss	3,2
  4043  04FF  2D04               	goto	i1l1889
  4044                           
  4045                           ;DMX.c: 209: DMX_Flags.RDMNew = 1;
  4046  0500  0020               	movlb	0	; select bank0
  4047  0501  17CB               	bsf	_DMX_Flags,7	;volatile
  4048                           
  4049                           ;DMX.c: 210: RxState = RX_WAIT_FOR_BREAK;
  4050                           
  4051                           ;DMX.c: 211: RxTimer = 0;
  4052                           
  4053                           ;DMX.c: 212: DMX_Flags.RxTimeout = 0;
  4054  0502  2543  3184         	fcall	PL22	;call to abstracted procedure
  4055  0504                     i1l1889:	
  4056                           
  4057                           ;DMX.c: 213: }
  4058                           ;DMX.c: 215: PackCount--;
  4059  0504  03F5               	decf	_PackCount,f	;volatile
  4060                           
  4061                           ;DMX.c: 216: break;
  4062  0505  2D32               	goto	i1l1905
  4063  0506                     i1l1891:	
  4064                           
  4065                           ;DMX.c: 218: RxDat = RCREG;
  4066  0506  0023               	movlb	3	; select bank3
  4067  0507  0819               	movf	25,w	;volatile
  4068  0508  00F3               	movwf	DMX_interrput@RxDat	;volatile
  4069                           
  4070                           ;DMX.c: 219: PD[PDCount] = RxDat;
  4071  0509  0876               	movf	_PDCount,w
  4072  050A  3E09               	addlw	9
  4073  050B  00F0               	movwf	??_DMX_interrput
  4074  050C  3021               	movlw	33
  4075  050D  01F1               	clrf	??_DMX_interrput+1
  4076  050E  3DF1               	addwfc	??_DMX_interrput+1,f
  4077  050F  0870               	movf	??_DMX_interrput,w
  4078  0510  0086               	movwf	6
  4079  0511  0871               	movf	??_DMX_interrput+1,w
  4080  0512  0087               	movwf	7
  4081  0513  0873               	movf	DMX_interrput@RxDat,w	;volatile
  4082  0514  0081               	movwf	1
  4083                           
  4084                           ;DMX.c: 220: PDCount--;
  4085  0515  03F6               	decf	_PDCount,f
  4086                           
  4087                           ;DMX.c: 221: if ((230 - RX_RDM_Data.PDL) == PDCount) {
  4088  0516  01F1               	clrf	??_DMX_interrput+1
  4089  0517  0021               	movlb	1	; select bank1
  4090  0518  0822               	movf	(_RX_RDM_Data^(0+128)+2),w	;volatile
  4091  0519  3CE6               	sublw	230
  4092  051A  00F0               	movwf	??_DMX_interrput
  4093  051B  1C03               	skipc
  4094  051C  03F1               	decf	??_DMX_interrput+1,f
  4095  051D  0676               	xorwf	_PDCount,w
  4096  051E  0471               	iorwf	??_DMX_interrput+1,w
  4097  051F  1D03               	skipz
  4098  0520  2D32               	goto	i1l1905
  4099                           
  4100                           ;DMX.c: 222: RxState = RX_RDM_READ_DATA;
  4101  0521  3004               	movlw	4
  4102  0522  00F8               	movwf	_RxState	;volatile
  4103                           
  4104                           ;DMX.c: 223: PD_Flag = 1;
  4105  0523  3001               	movlw	1
  4106  0524  0020               	movlb	0	; select bank0
  4107  0525  00C3               	movwf	_PD_Flag	;volatile
  4108  0526                     L8:	
  4109  0526  01C4               	clrf	_PD_Flag+1	;volatile
  4110  0527  2D32               	goto	i1l1905
  4111  0528                     i1l1903:	
  4112  0528  0878               	movf	_RxState,w	;volatile
  4113                           
  4114                           ; Switch size 1, requested type "space"
  4115                           ; Number of cases is 6, Range of values is 0 to 5
  4116                           ; switch strategies available:
  4117                           ; Name         Instructions Cycles
  4118                           ; direct_byte           18     6 (fixed)
  4119                           ; simple_byte           19    10 (average)
  4120                           ; jumptable            260     6 (fixed)
  4121                           ;	Chosen strategy is direct_byte
  4122  0529  0084               	movwf	4
  4123  052A  3006               	movlw	6
  4124  052B  0204               	subwf	4,w
  4125  052C  1803               	skipnc
  4126  052D  2D32               	goto	i1l1905
  4127  052E  3185               	movlp	high i1S2239
  4128  052F  3504               	lslf	4,w
  4129  0530  3ED8               	addlw	low i1S2239
  4130  0531  0082               	movwf	2
  4131  0532                     i1l1905:	
  4132                           
  4133                           ;DMX.c: 227: if (RxTimer > 2400) {
  4134  0532  0020               	movlb	0	; select bank0
  4135  0533  084E               	movf	_RxTimer+1,w	;volatile
  4136  0534  3A80               	xorlw	128
  4137  0535  00F0               	movwf	??_DMX_interrput
  4138  0536  3089               	movlw	137
  4139  0537  0270               	subwf	??_DMX_interrput,w
  4140  0538  1D03               	skipz
  4141  0539  2D3C               	goto	u81_25
  4142  053A  3061               	movlw	97
  4143  053B  024D               	subwf	_RxTimer,w	;volatile
  4144  053C                     u81_25:	
  4145  053C  1C03               	skipc
  4146  053D  0008               	return
  4147                           
  4148                           ;DMX.c: 228: DMX_Flags.RxTimeout = 1;
  4149  053E  0020               	movlb	0	; select bank0
  4150  053F  15CB               	bsf	_DMX_Flags,3	;volatile
  4151                           
  4152                           ;DMX.c: 229: RxTimer = 0;
  4153  0540  01CD               	clrf	_RxTimer	;volatile
  4154  0541  01CE               	clrf	_RxTimer+1	;volatile
  4155  0542  0008               	return
  4156  0543                     __end_of_DMX_interrput:	
  4157  007E                     btemp	set	126	;btemp
  4158  007E                     int$flags	set	126
  4159  007E                     wtemp0	set	126
  4160  0543                     PL22:	
  4161  0543  01F8               	clrf	_RxState	;volatile
  4162  0544  01CD               	clrf	_RxTimer	;volatile
  4163  0545  01CE               	clrf	_RxTimer+1	;volatile
  4164  0546  11CB               	bcf	_DMX_Flags,3	;volatile
  4165  0547  0008               	return
  4166  0548                     __end_ofPL22:	
  4167                           
  4168                           	psect	swtext1
  4169  05D8                     __pswtext1:	
  4170  05D8                     i1S2239:	
  4171  05D8  3184  2C77         	ljmp	i1l1821
  4172  05DA  3184  2C7B         	ljmp	i1l323
  4173  05DC  3184  2C9C         	ljmp	i1l1841
  4174  05DE  3184  2CD6         	ljmp	i1l1861
  4175  05E0  3184  2CE2         	ljmp	i1l1869
  4176  05E2  3185  2D06         	ljmp	i1l1891


Data Sizes:
    Strings     0
    Constant    512
    Data        29
    BSS         119
    Persistent  2
    Stack       0

Auto Spaces:
    Space          Size  Autos    Used
    COMMON           14      5      10
    BANK0            80     13      78
    BANK1            80      0      80
    BANK2            80      0       0
    BANK3            25      0       0
    BANK4             0      0       0
    BANK5             0      0       0
    BANK6             0      0       0

Pointer List with Targets:

    RxArPtr	PTR volatile unsigned char  size(1) Largest target is 0
		 -> NULL(NULL[0]), 

    PD_ID	PTR unsigned long  size(2) Largest target is 231
		 -> NULL(NULL[0]), PD(BIGRAM[231]), 

    PD_Manu	PTR unsigned int  size(2) Largest target is 231
		 -> NULL(NULL[0]), PD(BIGRAM[231]), 

    TxByte	PTR volatile unsigned char  size(1) Largest target is 24
		 -> NULL(NULL[0]), DISCOVERY_RDM_Data(BANK1[24]), TX_RDM_Data(BANK1[24]), 

    RxDataPtr	PTR volatile unsigned char  size(1) Largest target is 4
		 -> NULL(NULL[0]), RxData(BANK0[4]), 

    PWMLDCONptr	PTR unsigned char [4] size(2) Largest target is 1
		 -> PWM4LDCON(SFR27[1]), PWM3LDCON(SFR27[1]), PWM2LDCON(SFR27[1]), PWM1LDCON(SFR27[1]), 

    PWMDCHptr	PTR unsigned char [4] size(2) Largest target is 1
		 -> PWM4DCH(SFR27[1]), PWM3DCH(SFR27[1]), PWM2DCH(SFR27[1]), PWM1DCH(SFR27[1]), 

    PWMDCLptr	PTR unsigned char [4] size(2) Largest target is 1
		 -> PWM4DCL(SFR27[1]), PWM3DCL(SFR27[1]), PWM2DCL(SFR27[1]), PWM1DCL(SFR27[1]), 


Critical Paths under _main in COMMON

    _main->_DMX_loop

Critical Paths under _isr in COMMON

    _isr->_DMX_interrput

Critical Paths under _main in BANK0

    _main->_DMX_loop
    _DMX_loop->___awdiv

Critical Paths under _isr in BANK0

    None.

Critical Paths under _main in BANK1

    None.

Critical Paths under _isr in BANK1

    None.

Critical Paths under _main in BANK2

    None.

Critical Paths under _isr in BANK2

    None.

Critical Paths under _main in BANK3

    None.

Critical Paths under _isr in BANK3

    None.

Critical Paths under _main in BANK4

    None.

Critical Paths under _isr in BANK4

    None.

Critical Paths under _main in BANK5

    None.

Critical Paths under _isr in BANK5

    None.

Critical Paths under _main in BANK6

    None.

Critical Paths under _isr in BANK6

    None.

Call Graph Tables:

 ---------------------------------------------------------------------------------
 (Depth) Function   	        Calls       Base Space   Used Autos Params    Refs
 ---------------------------------------------------------------------------------
 (0) _main                                                 0     0      0    2339
                           _DMX_init
                           _DMX_loop
                        _timer1_init
 ---------------------------------------------------------------------------------
 (1) _timer1_init                                          0     0      0       0
 ---------------------------------------------------------------------------------
 (1) _DMX_loop                                             6     6      0    2339
                                              4 COMMON     1     1      0
                                              8 BANK0      5     5      0
                            ___awdiv
 ---------------------------------------------------------------------------------
 (2) ___awdiv                                              8     4      4     861
                                              0 BANK0      8     4      4
 ---------------------------------------------------------------------------------
 (1) _DMX_init                                             0     0      0       0
 ---------------------------------------------------------------------------------
 Estimated maximum stack depth 2
 ---------------------------------------------------------------------------------
 (Depth) Function   	        Calls       Base Space   Used Autos Params    Refs
 ---------------------------------------------------------------------------------
 (3) _isr                                                  0     0      0     139
                      _DMX_interrput
                   _timer1_interrupt
 ---------------------------------------------------------------------------------
 (4) _timer1_interrupt                                     1     1      0       0
                                              0 COMMON     1     1      0
 ---------------------------------------------------------------------------------
 (4) _DMX_interrput                                        4     4      0     139
                                              0 COMMON     4     4      0
 ---------------------------------------------------------------------------------
 Estimated maximum stack depth 4
 ---------------------------------------------------------------------------------

 Call Graph Graphs:

 _main (ROOT)
   _DMX_init
   _DMX_loop
     ___awdiv
   _timer1_init

 _isr (ROOT)
   _DMX_interrput
   _timer1_interrupt

 Address spaces:
Name               Size   Autos  Total    Cost      Usage
BIGRAM             1F0      0       0       0        0.0%
NULL                 0      0       0       0        0.0%
CODE                 0      0       0       0        0.0%
BITCOMMON            E      0       0       1        0.0%
BITSFR0              0      0       0       1        0.0%
SFR0                 0      0       0       1        0.0%
COMMON               E      5       A       2       71.4%
BITSFR1              0      0       0       2        0.0%
SFR1                 0      0       0       2        0.0%
BITSFR2              0      0       0       3        0.0%
SFR2                 0      0       0       3        0.0%
STACK                0      0       0       3        0.0%
BITSFR3              0      0       0       4        0.0%
SFR3                 0      0       0       4        0.0%
ABS                  0      0      A8       4        0.0%
BITBANK0            50      0       0       5        0.0%
BITSFR4              0      0       0       5        0.0%
SFR4                 0      0       0       5        0.0%
BANK0               50      D      4E       6       97.5%
BITSFR5              0      0       0       6        0.0%
SFR5                 0      0       0       6        0.0%
BITBANK1            50      0       0       7        0.0%
BITSFR6              0      0       0       7        0.0%
SFR6                 0      0       0       7        0.0%
BANK1               50      0      50       8      100.0%
BITSFR7              0      0       0       8        0.0%
SFR7                 0      0       0       8        0.0%
BITBANK2            50      0       0       9        0.0%
BITSFR8              0      0       0       9        0.0%
SFR8                 0      0       0       9        0.0%
BANK2               50      0       0      10        0.0%
BITSFR9              0      0       0      10        0.0%
SFR9                 0      0       0      10        0.0%
BITBANK3            50      0       0      11        0.0%
BITSFR10             0      0       0      11        0.0%
SFR10                0      0       0      11        0.0%
BANK3               19      0       0      12        0.0%
BITSFR11             0      0       0      12        0.0%
SFR11                0      0       0      12        0.0%
BITBANK4            50      0       0      13        0.0%
BITSFR12             0      0       0      13        0.0%
SFR12                0      0       0      13        0.0%
BITSFR13             0      0       0      14        0.0%
SFR13                0      0       0      14        0.0%
BANK4                0      0       0      14        0.0%
BITBANK5            50      0       0      15        0.0%
BITSFR14             0      0       0      15        0.0%
SFR14                0      0       0      15        0.0%
BITSFR15             0      0       0      16        0.0%
SFR15                0      0       0      16        0.0%
BANK5                0      0       0      16        0.0%
BITBANK6            10      0       0      17        0.0%
BITSFR16             0      0       0      17        0.0%
SFR16                0      0       0      17        0.0%
BITSFR17             0      0       0      18        0.0%
SFR17                0      0       0      18        0.0%
BANK6                0      0       0      18        0.0%
BITSFR18             0      0       0      19        0.0%
SFR18                0      0       0      19        0.0%
DATA                 0      0      A8      19        0.0%
BITSFR19             0      0       0      20        0.0%
SFR19                0      0       0      20        0.0%
BITSFR20             0      0       0      21        0.0%
SFR20                0      0       0      21        0.0%
BITSFR21             0      0       0      22        0.0%
SFR21                0      0       0      22        0.0%
BITSFR22             0      0       0      23        0.0%
SFR22                0      0       0      23        0.0%
BITSFR23             0      0       0      24        0.0%
SFR23                0      0       0      24        0.0%
BITSFR24             0      0       0      25        0.0%
SFR24                0      0       0      25        0.0%
BITSFR25             0      0       0      26        0.0%
SFR25                0      0       0      26        0.0%
BITSFR26             0      0       0      27        0.0%
SFR26                0      0       0      27        0.0%
BITSFR27             0      0       0      28        0.0%
SFR27                0      0       0      28        0.0%
BITSFR28             0      0       0      29        0.0%
SFR28                0      0       0      29        0.0%
BITSFR29             0      0       0      30        0.0%
SFR29                0      0       0      30        0.0%
BITSFR30             0      0       0      31        0.0%
SFR30                0      0       0      31        0.0%
BITSFR31             0      0       0      32        0.0%
SFR31                0      0       0      32        0.0%


Microchip Technology PIC Macro Assembler V1.41 build -162212810 
Symbol Table                                                                                   Tue Jun 20 14:47:01 2017

                        _i 0049                          pc 0002                __CFG_CP$OFF 0000  
                       PL2 0204                         PL4 021B                         PL6 0228  
                       PL8 0234                         _PD 2109               ___awdiv@sign 0060  
                      PL10 023C                        PL20 025C                        PL12 0244  
                      PL22 0543                        PL14 024A                        PL16 0250  
                      PL18 0256                        l287 0141                        _RA5 0065  
                      _PR2 001B                        u955 01E7                        _PWM 0262  
                      _isr 0004                        wreg 0009               __CFG_LVP$OFF 0000  
                     l2131 014F                       l2053 01D2                       l2141 019F  
                     l2133 0155                       l2125 0148                       l2117 00D8  
                     l2071 01EE                       l2063 01DF                       l2047 01C9  
                     l2207 008A                       l2075 01F2                       l2171 01B6  
                     l2147 015D                       l2149 016C                       l2079 01FA  
                     l2159 01A0                       l2099 0100                       _ADIE 048E  
                     ?_isr 0070                       _BRGH 0CF2                       _FERR 0CEA  
                     u1005 0219                       _RCIE 048D                       _RCIF 008D  
                     _RGBW 003F                       _TMR1 0016                       _TXIE 048C  
                     _TXEN 0CF5                       _SYNC 0CF4               __CFG_WRT$OFF 0000  
                     _main 0048                       fsr0h 0005                       fsr1h 0007  
                     indf0 0000                       fsr0l 0004                       indf1 0001  
                     fsr1l 0006                       btemp 007E                       start 000D  
            __CFG_MCLRE$ON 0000                      ??_isr 0074              __CFG_PLLEN$ON 0000  
              _RX_RDM_Data 00A0                      ?_main 0070            __end_of___awdiv 01FF  
            __CFG_WDTE$OFF 0000           __end_of_DMX_init 00D3                      _ANSA2 0C62  
                    _ANSC0 0C70                      _ANSC1 0C71                      _ANSC2 0C72  
                    _ANSC3 0C73           __end_of_DMX_loop 01BF            ___awdiv@divisor 005B  
                    _T1CON 0018                      _T2CON 001C                      i1l323 047B  
                    i1l771 0562                      i1l777 0594            ___awdiv@counter 005F  
                    _RCREG 0199                      _RCSTA 019D                      _PD_ID 0045  
                    u71_25 04AA                      u81_25 053C                      u73_25 04CB  
                    u84_20 0555                      u84_22 0556                      u85_20 055C  
                    u85_22 055D                      _RXPPS 0E15                      _Timer 0030  
           __CFG_BOREN$OFF 0000                _TX_RDM_Data 00D8                      status 0003  
                    wtemp0 007E              _DMXPeriodSign 0037              _DMXPeriodStep 0068  
          __initialization 000F               __end_of_main 008D                     ??_main 0075  
                   i1S2239 05D8           ___awdiv@dividend 005D                     _RA2PPS 0E92  
                   _RC0PPS 0EA0                     _RC1PPS 0EA1                     _RC2PPS 0EA2  
                   i1l1821 0477                     i1l1903 0528                     i1l1841 049C  
                   i1l1833 0491                     i1l1905 0532                     i1l1923 0550  
                   i1l1861 04D6                     i1l1925 0551                     i1l1839 049A  
                   i1l1881 04FD                     i1l1849 04B7                     i1l1937 0576  
                   i1l1891 0506                     i1l1869 04E2                     i1l1967 059F  
                   i1l1889 0504                     _INTCON 000B                     _OSCCON 0099  
                   _PWM1DC 0D93                     _PWM2DC 0DA3                     _PWM3DC 0DB3  
   __size_of_DMX_interrput 00E1                     _PWM4DC 0DC3                     _TMR1IE 0488  
                   _TMR1IF 0088                     _SPBRGH 019C                     _SPBRGL 019B  
                   _TRISA2 0462                     _TRISC0 0470                     _TRISC1 0471  
                   _TRISC2 0472                     _TRISC3 0473                     _TRISC5 0475  
           __CFG_PWRTE$OFF 0000                     _RxData 0057           _timer1_interrupt 0548  
                   _TxByte 0055                  ??___awdiv 0074             __CFG_STVREN$ON 0000  
             ?_timer1_init 0070                 _TimerState 0053           ___awdiv@quotient 0061  
             __pdataCOMMON 0079    __end_of__initialization 0045         _DMXPeriodStepConst 003B  
                ?_DMX_init 0070                  ?_DMX_loop 0070             _DMXPeriodConst 0077  
           __pcstackCOMMON 0070               __pidataBANK0 0000               __pidataBANK1 05A8  
               __end_ofPL2 021B                 __end_ofPL4 0228                 __end_ofPL6 0234  
               __end_ofPL8 023C              _DMX_interrput 0462                 __pbssBANK0 0020  
               __pbssBANK1 00A0                _RxAddrCount 004F                 ??_DMX_init 0074  
               ??_DMX_loop 0063                 __pmaintext 0048                 __pintentry 0004  
           ?_DMX_interrput 0070                    _BAUDCON 019F                    _PWM1DCH 0D94  
                  _PWM1DCL 0D93                    _PWM2DCH 0DA4                    _PWM2DCL 0DA3  
                  _OSCTUNE 0098                    _PWM3DCH 0DB4                    _PWM3DCL 0DB3  
                  _PWM4DCH 0DC4                    _PWM1CON 0D9B                    _PWM4DCL 0DC3  
                  _PWM2CON 0DAB                    _PWM3CON 0DBB                    _PWM4CON 0DCB  
                  _PDCount 0076                    _PWM1PHH 0D92                    _PWM1PHL 0D91  
                  _PWM2PHH 0DA2                    _PWM2PHL 0DA1                    _PWM3PHH 0DB2  
                  _PWM3PHL 0DB1                    _PWM1PRH 0D96                    _PWM4PHH 0DC2  
                  _PWM1PRL 0D95                    _PWM4PHL 0DC1                    _PWM2PRH 0DA6  
                  _PWM2PRL 0DA5                    _PWM3PRH 0DB6                    _PWM3PRL 0DB5  
                  _PD_Flag 0043                    _PWM4PRH 0DC6                    _PWM4PRL 0DC5  
                  _PD_Manu 0047                  _ADC_Flags 0051                    _RxTimer 004D  
                  _RxState 0078                    _TxState 0054                    ___awdiv 01BF  
             DMX_loop@Addr 0074       __size_of_timer1_init 0005                    __ptext1 01FF  
                  __ptext2 00D3                    __ptext3 01BF                    __ptext4 008D  
                  __ptext6 0548                    __ptext7 0462               __size_of_isr 0009  
 __end_of_timer1_interrupt 05A8                    clrloop0 05CD       end_of_initialization 0045  
                _DMX_Flags 004B                  _DMXPeriod 0079                    init_ram 05C0  
                  initloop 05C1            ??_DMX_interrput 0070                  _PWM1LDCON 0D9F  
                _PWM2LDCON 0DAF                  _PWM3LDCON 0DBF                  _PWM4LDCON 0DCF  
             __pstringtext 0262                  _PWMDCHptr 0020                  _PWMDCLptr 0028  
         __CFG_FOSC$INTOSC 0000          __size_of_DMX_init 0046          __size_of_DMX_loop 00EC  
            __pidataCOMMON 0000                  _PackCount 0075                __end_ofPL10 0244  
              __end_ofPL20 0262                __end_ofPL12 024A                __end_ofPL22 0548  
              __end_ofPL14 0250                __end_ofPL16 0256                __end_ofPL18 025C  
      start_initialization 000F                __end_of_PWM 0462                __end_of_isr 000D  
                _RxDataPtr 0056           __CFG_LPBOREN$OFF 0000                __pdataBANK0 0068  
              __pdataBANK1 00D8                __pbssBIGRAM 2109                __pbssCOMMON 0075  
                ___latbits 0001              __pcstackBANK0 005B                  __pnvBANK0 006C  
                 ?___awdiv 005B           __CFG_PPS1WAY$OFF 0000                  __pswtext1 05D8  
                 _ADC_Data 0052          ?_timer1_interrupt 0070         ??_timer1_interrupt 0070  
                clear_ram0 05CC                   _DMX_init 008D                   _DMX_loop 00D3  
       DMX_interrput@RxDat 0073              ??_timer1_init 0074                _DMX_Address 006C  
         __size_of___awdiv 0040      __end_of_DMX_interrput 0543        __end_of_timer1_init 0204  
            __size_of_main 0045                   int$flags 007E                   intlevel1 0000  
        __CFG_CLKOUTEN$OFF 0000         _DISCOVERY_RDM_Data 00C0                _timer1_init 01FF  
               _PWM1CLKCON 0D9E                 _PWM2CLKCON 0DAE                 _PWM3CLKCON 0DBE  
               _PWM4CLKCON 0DCE                _PWMLDCONptr 00B8  __size_of_timer1_interrupt 0060  
