

Microchip Technology PIC PRO Macro Assembler V1.41 build -162212810 
                                                                                               Thu May 25 09:48:05 2017

Microchip Technology Omniscient Code Generator v1.41 (PRO mode) build 201701250102
     1                           	processor	16F1574
     2                           	opt	pw 120
     3                           	opt	pm
     4                           	psect	idataCOMMON,global,class=CODE,delta=2
     5                           	psect	idataBANK0,global,class=CODE,delta=2
     6                           	psect	stringtext,global,class=STRCODE,delta=2
     7                           	psect	cinit,global,class=CODE,merge=1,delta=2
     8                           	psect	bssCOMMON,global,class=COMMON,space=1,delta=1
     9                           	psect	dataCOMMON,global,class=COMMON,space=1,delta=1
    10                           	psect	bssBANK0,global,class=BANK0,space=1,delta=1
    11                           	psect	dataBANK0,global,class=BANK0,space=1,delta=1
    12                           	psect	clrtext,global,class=CODE,delta=2
    13                           	psect	cstackCOMMON,global,class=COMMON,space=1,delta=1
    14                           	psect	cstackBANK0,global,class=BANK0,space=1,delta=1
    15                           	psect	intentry,global,class=CODE,delta=2
    16                           	psect	text5,local,class=CODE,merge=1,delta=2
    17                           	psect	pa_nodes0,global,class=CODE,delta=2
    18                           	dabs	1,0x7E,2
    19  0000                     
    20                           ; Version 1.41
    21                           ; Generated 25/01/2017 GMT
    22                           ; 
    23                           ; Copyright © 2017, Microchip Technology Inc. and its subsidiaries ("Microchip")
    24                           ; All rights reserved.
    25                           ; 
    26                           ; This software is developed by Microchip Technology Inc. and its subsidiaries ("Microch
      +                          ip").
    27                           ; 
    28                           ; Redistribution and use in source and binary forms, with or without modification, are
    29                           ; permitted provided that the following conditions are met:
    30                           ; 
    31                           ;     1. Redistributions of source code must retain the above copyright notice, this lis
      +                          t of
    32                           ;        conditions and the following disclaimer.
    33                           ; 
    34                           ;     2. Redistributions in binary form must reproduce the above copyright notice, this 
      +                          list
    35                           ;        of conditions and the following disclaimer in the documentation and/or other
    36                           ;        materials provided with the distribution.
    37                           ; 
    38                           ;     3. Microchip's name may not be used to endorse or promote products derived from th
      +                          is
    39                           ;        software without specific prior written permission.
    40                           ; 
    41                           ; THIS SOFTWARE IS PROVIDED BY MICROCHIP "AS IS" AND ANY EXPRESS OR IMPLIED WARRANTIES,
    42                           ; INCLUDING, BUT NOT LIMITED TO, THE IMPLIED WARRANTIES OF MERCHANTABILITY AND FITNESS F
      +                          OR
    43                           ; PURPOSE ARE DISCLAIMED.  IN NO EVENT SHALL MICROCHIP BE LIABLE FOR ANY DIRECT, INDIREC
      +                          T,
    44                           ; INCIDENTAL, SPECIAL, EXEMPLARY, OR CONSEQUENTIAL DAMAGES (INCLUDING BUT NOT LIMITED TO
    45                           ; PROCUREMENT OF SUBSTITUTE GOODS OR SERVICES; LOSS OF USE, DATA OR PROFITS; OR BUSINESS
    46                           ; INTERRUPTION) HOWSOEVER CAUSED AND ON ANY THEORY OF LIABILITY, WHETHER IN CONTRACT, ST
      +                          RICT
    47                           ; LIABILITY, OR TORT (INCLUDING NEGLIGENCE OR OTHERWISE) ARISING IN ANY WAY OUT OF THE U
      +                          SE OF
    48                           ; THIS SOFTWARE, EVEN IF ADVISED OF THE POSSIBILITY OF SUCH DAMAGE.
    49                           ; 
    50                           ; 
    51                           ; Code-generator required, PIC16F1574 Definitions
    52                           ; 
    53                           ; SFR Addresses
    54  0000                     	;# 
    55  0001                     	;# 
    56  0002                     	;# 
    57  0003                     	;# 
    58  0004                     	;# 
    59  0005                     	;# 
    60  0006                     	;# 
    61  0007                     	;# 
    62  0008                     	;# 
    63  0009                     	;# 
    64  000A                     	;# 
    65  000B                     	;# 
    66  000C                     	;# 
    67  000E                     	;# 
    68  0011                     	;# 
    69  0012                     	;# 
    70  0013                     	;# 
    71  0015                     	;# 
    72  0016                     	;# 
    73  0016                     	;# 
    74  0017                     	;# 
    75  0018                     	;# 
    76  0019                     	;# 
    77  001A                     	;# 
    78  001B                     	;# 
    79  001C                     	;# 
    80  008C                     	;# 
    81  008E                     	;# 
    82  0091                     	;# 
    83  0092                     	;# 
    84  0093                     	;# 
    85  0095                     	;# 
    86  0096                     	;# 
    87  0097                     	;# 
    88  0098                     	;# 
    89  0099                     	;# 
    90  009A                     	;# 
    91  009B                     	;# 
    92  009B                     	;# 
    93  009C                     	;# 
    94  009D                     	;# 
    95  009E                     	;# 
    96  009F                     	;# 
    97  010C                     	;# 
    98  010E                     	;# 
    99  0111                     	;# 
   100  0112                     	;# 
   101  0113                     	;# 
   102  0114                     	;# 
   103  0115                     	;# 
   104  0116                     	;# 
   105  0117                     	;# 
   106  0118                     	;# 
   107  0119                     	;# 
   108  018C                     	;# 
   109  018E                     	;# 
   110  0191                     	;# 
   111  0191                     	;# 
   112  0192                     	;# 
   113  0193                     	;# 
   114  0193                     	;# 
   115  0194                     	;# 
   116  0195                     	;# 
   117  0196                     	;# 
   118  0197                     	;# 
   119  0199                     	;# 
   120  019A                     	;# 
   121  019B                     	;# 
   122  019B                     	;# 
   123  019C                     	;# 
   124  019D                     	;# 
   125  019E                     	;# 
   126  019F                     	;# 
   127  020C                     	;# 
   128  020E                     	;# 
   129  028C                     	;# 
   130  028E                     	;# 
   131  030C                     	;# 
   132  030E                     	;# 
   133  038C                     	;# 
   134  038E                     	;# 
   135  0391                     	;# 
   136  0392                     	;# 
   137  0393                     	;# 
   138  0397                     	;# 
   139  0398                     	;# 
   140  0399                     	;# 
   141  0691                     	;# 
   142  0692                     	;# 
   143  0693                     	;# 
   144  0694                     	;# 
   145  0695                     	;# 
   146  0D8E                     	;# 
   147  0D8F                     	;# 
   148  0D90                     	;# 
   149  0D91                     	;# 
   150  0D91                     	;# 
   151  0D92                     	;# 
   152  0D93                     	;# 
   153  0D93                     	;# 
   154  0D94                     	;# 
   155  0D95                     	;# 
   156  0D95                     	;# 
   157  0D96                     	;# 
   158  0D97                     	;# 
   159  0D97                     	;# 
   160  0D98                     	;# 
   161  0D99                     	;# 
   162  0D99                     	;# 
   163  0D9A                     	;# 
   164  0D9B                     	;# 
   165  0D9C                     	;# 
   166  0D9C                     	;# 
   167  0D9D                     	;# 
   168  0D9D                     	;# 
   169  0D9E                     	;# 
   170  0D9F                     	;# 
   171  0DA0                     	;# 
   172  0DA1                     	;# 
   173  0DA1                     	;# 
   174  0DA2                     	;# 
   175  0DA3                     	;# 
   176  0DA3                     	;# 
   177  0DA4                     	;# 
   178  0DA5                     	;# 
   179  0DA5                     	;# 
   180  0DA6                     	;# 
   181  0DA7                     	;# 
   182  0DA7                     	;# 
   183  0DA8                     	;# 
   184  0DA9                     	;# 
   185  0DA9                     	;# 
   186  0DAA                     	;# 
   187  0DAB                     	;# 
   188  0DAC                     	;# 
   189  0DAC                     	;# 
   190  0DAD                     	;# 
   191  0DAD                     	;# 
   192  0DAE                     	;# 
   193  0DAF                     	;# 
   194  0DB0                     	;# 
   195  0DB1                     	;# 
   196  0DB1                     	;# 
   197  0DB2                     	;# 
   198  0DB3                     	;# 
   199  0DB3                     	;# 
   200  0DB4                     	;# 
   201  0DB5                     	;# 
   202  0DB5                     	;# 
   203  0DB6                     	;# 
   204  0DB7                     	;# 
   205  0DB7                     	;# 
   206  0DB8                     	;# 
   207  0DB9                     	;# 
   208  0DB9                     	;# 
   209  0DBA                     	;# 
   210  0DBB                     	;# 
   211  0DBC                     	;# 
   212  0DBC                     	;# 
   213  0DBD                     	;# 
   214  0DBD                     	;# 
   215  0DBE                     	;# 
   216  0DBF                     	;# 
   217  0DC0                     	;# 
   218  0DC1                     	;# 
   219  0DC1                     	;# 
   220  0DC2                     	;# 
   221  0DC3                     	;# 
   222  0DC3                     	;# 
   223  0DC4                     	;# 
   224  0DC5                     	;# 
   225  0DC5                     	;# 
   226  0DC6                     	;# 
   227  0DC7                     	;# 
   228  0DC7                     	;# 
   229  0DC8                     	;# 
   230  0DC9                     	;# 
   231  0DC9                     	;# 
   232  0DCA                     	;# 
   233  0DCB                     	;# 
   234  0DCC                     	;# 
   235  0DCC                     	;# 
   236  0DCD                     	;# 
   237  0DCD                     	;# 
   238  0DCE                     	;# 
   239  0DCF                     	;# 
   240  0DD0                     	;# 
   241  0E0F                     	;# 
   242  0E10                     	;# 
   243  0E11                     	;# 
   244  0E12                     	;# 
   245  0E13                     	;# 
   246  0E14                     	;# 
   247  0E15                     	;# 
   248  0E16                     	;# 
   249  0E17                     	;# 
   250  0E90                     	;# 
   251  0E91                     	;# 
   252  0E92                     	;# 
   253  0E94                     	;# 
   254  0E95                     	;# 
   255  0EA0                     	;# 
   256  0EA1                     	;# 
   257  0EA2                     	;# 
   258  0EA3                     	;# 
   259  0EA4                     	;# 
   260  0EA5                     	;# 
   261  0FE4                     	;# 
   262  0FE5                     	;# 
   263  0FE6                     	;# 
   264  0FE7                     	;# 
   265  0FE8                     	;# 
   266  0FE8                     	;# 
   267  0FE9                     	;# 
   268  0FEA                     	;# 
   269  0FEA                     	;# 
   270  0FEB                     	;# 
   271  0FED                     	;# 
   272  0FEE                     	;# 
   273  0FEE                     	;# 
   274  0FEF                     	;# 
   275  0000                     	;# 
   276  0001                     	;# 
   277  0002                     	;# 
   278  0003                     	;# 
   279  0004                     	;# 
   280  0005                     	;# 
   281  0006                     	;# 
   282  0007                     	;# 
   283  0008                     	;# 
   284  0009                     	;# 
   285  000A                     	;# 
   286  000B                     	;# 
   287  000C                     	;# 
   288  000E                     	;# 
   289  0011                     	;# 
   290  0012                     	;# 
   291  0013                     	;# 
   292  0015                     	;# 
   293  0016                     	;# 
   294  0016                     	;# 
   295  0017                     	;# 
   296  0018                     	;# 
   297  0019                     	;# 
   298  001A                     	;# 
   299  001B                     	;# 
   300  001C                     	;# 
   301  008C                     	;# 
   302  008E                     	;# 
   303  0091                     	;# 
   304  0092                     	;# 
   305  0093                     	;# 
   306  0095                     	;# 
   307  0096                     	;# 
   308  0097                     	;# 
   309  0098                     	;# 
   310  0099                     	;# 
   311  009A                     	;# 
   312  009B                     	;# 
   313  009B                     	;# 
   314  009C                     	;# 
   315  009D                     	;# 
   316  009E                     	;# 
   317  009F                     	;# 
   318  010C                     	;# 
   319  010E                     	;# 
   320  0111                     	;# 
   321  0112                     	;# 
   322  0113                     	;# 
   323  0114                     	;# 
   324  0115                     	;# 
   325  0116                     	;# 
   326  0117                     	;# 
   327  0118                     	;# 
   328  0119                     	;# 
   329  018C                     	;# 
   330  018E                     	;# 
   331  0191                     	;# 
   332  0191                     	;# 
   333  0192                     	;# 
   334  0193                     	;# 
   335  0193                     	;# 
   336  0194                     	;# 
   337  0195                     	;# 
   338  0196                     	;# 
   339  0197                     	;# 
   340  0199                     	;# 
   341  019A                     	;# 
   342  019B                     	;# 
   343  019B                     	;# 
   344  019C                     	;# 
   345  019D                     	;# 
   346  019E                     	;# 
   347  019F                     	;# 
   348  020C                     	;# 
   349  020E                     	;# 
   350  028C                     	;# 
   351  028E                     	;# 
   352  030C                     	;# 
   353  030E                     	;# 
   354  038C                     	;# 
   355  038E                     	;# 
   356  0391                     	;# 
   357  0392                     	;# 
   358  0393                     	;# 
   359  0397                     	;# 
   360  0398                     	;# 
   361  0399                     	;# 
   362  0691                     	;# 
   363  0692                     	;# 
   364  0693                     	;# 
   365  0694                     	;# 
   366  0695                     	;# 
   367  0D8E                     	;# 
   368  0D8F                     	;# 
   369  0D90                     	;# 
   370  0D91                     	;# 
   371  0D91                     	;# 
   372  0D92                     	;# 
   373  0D93                     	;# 
   374  0D93                     	;# 
   375  0D94                     	;# 
   376  0D95                     	;# 
   377  0D95                     	;# 
   378  0D96                     	;# 
   379  0D97                     	;# 
   380  0D97                     	;# 
   381  0D98                     	;# 
   382  0D99                     	;# 
   383  0D99                     	;# 
   384  0D9A                     	;# 
   385  0D9B                     	;# 
   386  0D9C                     	;# 
   387  0D9C                     	;# 
   388  0D9D                     	;# 
   389  0D9D                     	;# 
   390  0D9E                     	;# 
   391  0D9F                     	;# 
   392  0DA0                     	;# 
   393  0DA1                     	;# 
   394  0DA1                     	;# 
   395  0DA2                     	;# 
   396  0DA3                     	;# 
   397  0DA3                     	;# 
   398  0DA4                     	;# 
   399  0DA5                     	;# 
   400  0DA5                     	;# 
   401  0DA6                     	;# 
   402  0DA7                     	;# 
   403  0DA7                     	;# 
   404  0DA8                     	;# 
   405  0DA9                     	;# 
   406  0DA9                     	;# 
   407  0DAA                     	;# 
   408  0DAB                     	;# 
   409  0DAC                     	;# 
   410  0DAC                     	;# 
   411  0DAD                     	;# 
   412  0DAD                     	;# 
   413  0DAE                     	;# 
   414  0DAF                     	;# 
   415  0DB0                     	;# 
   416  0DB1                     	;# 
   417  0DB1                     	;# 
   418  0DB2                     	;# 
   419  0DB3                     	;# 
   420  0DB3                     	;# 
   421  0DB4                     	;# 
   422  0DB5                     	;# 
   423  0DB5                     	;# 
   424  0DB6                     	;# 
   425  0DB7                     	;# 
   426  0DB7                     	;# 
   427  0DB8                     	;# 
   428  0DB9                     	;# 
   429  0DB9                     	;# 
   430  0DBA                     	;# 
   431  0DBB                     	;# 
   432  0DBC                     	;# 
   433  0DBC                     	;# 
   434  0DBD                     	;# 
   435  0DBD                     	;# 
   436  0DBE                     	;# 
   437  0DBF                     	;# 
   438  0DC0                     	;# 
   439  0DC1                     	;# 
   440  0DC1                     	;# 
   441  0DC2                     	;# 
   442  0DC3                     	;# 
   443  0DC3                     	;# 
   444  0DC4                     	;# 
   445  0DC5                     	;# 
   446  0DC5                     	;# 
   447  0DC6                     	;# 
   448  0DC7                     	;# 
   449  0DC7                     	;# 
   450  0DC8                     	;# 
   451  0DC9                     	;# 
   452  0DC9                     	;# 
   453  0DCA                     	;# 
   454  0DCB                     	;# 
   455  0DCC                     	;# 
   456  0DCC                     	;# 
   457  0DCD                     	;# 
   458  0DCD                     	;# 
   459  0DCE                     	;# 
   460  0DCF                     	;# 
   461  0DD0                     	;# 
   462  0E0F                     	;# 
   463  0E10                     	;# 
   464  0E11                     	;# 
   465  0E12                     	;# 
   466  0E13                     	;# 
   467  0E14                     	;# 
   468  0E15                     	;# 
   469  0E16                     	;# 
   470  0E17                     	;# 
   471  0E90                     	;# 
   472  0E91                     	;# 
   473  0E92                     	;# 
   474  0E94                     	;# 
   475  0E95                     	;# 
   476  0EA0                     	;# 
   477  0EA1                     	;# 
   478  0EA2                     	;# 
   479  0EA3                     	;# 
   480  0EA4                     	;# 
   481  0EA5                     	;# 
   482  0FE4                     	;# 
   483  0FE5                     	;# 
   484  0FE6                     	;# 
   485  0FE7                     	;# 
   486  0FE8                     	;# 
   487  0FE8                     	;# 
   488  0FE9                     	;# 
   489  0FEA                     	;# 
   490  0FEA                     	;# 
   491  0FEB                     	;# 
   492  0FED                     	;# 
   493  0FEE                     	;# 
   494  0FEE                     	;# 
   495  0FEF                     	;# 
   496  0000                     	;# 
   497  0001                     	;# 
   498  0002                     	;# 
   499  0003                     	;# 
   500  0004                     	;# 
   501  0005                     	;# 
   502  0006                     	;# 
   503  0007                     	;# 
   504  0008                     	;# 
   505  0009                     	;# 
   506  000A                     	;# 
   507  000B                     	;# 
   508  000C                     	;# 
   509  000E                     	;# 
   510  0011                     	;# 
   511  0012                     	;# 
   512  0013                     	;# 
   513  0015                     	;# 
   514  0016                     	;# 
   515  0016                     	;# 
   516  0017                     	;# 
   517  0018                     	;# 
   518  0019                     	;# 
   519  001A                     	;# 
   520  001B                     	;# 
   521  001C                     	;# 
   522  008C                     	;# 
   523  008E                     	;# 
   524  0091                     	;# 
   525  0092                     	;# 
   526  0093                     	;# 
   527  0095                     	;# 
   528  0096                     	;# 
   529  0097                     	;# 
   530  0098                     	;# 
   531  0099                     	;# 
   532  009A                     	;# 
   533  009B                     	;# 
   534  009B                     	;# 
   535  009C                     	;# 
   536  009D                     	;# 
   537  009E                     	;# 
   538  009F                     	;# 
   539  010C                     	;# 
   540  010E                     	;# 
   541  0111                     	;# 
   542  0112                     	;# 
   543  0113                     	;# 
   544  0114                     	;# 
   545  0115                     	;# 
   546  0116                     	;# 
   547  0117                     	;# 
   548  0118                     	;# 
   549  0119                     	;# 
   550  018C                     	;# 
   551  018E                     	;# 
   552  0191                     	;# 
   553  0191                     	;# 
   554  0192                     	;# 
   555  0193                     	;# 
   556  0193                     	;# 
   557  0194                     	;# 
   558  0195                     	;# 
   559  0196                     	;# 
   560  0197                     	;# 
   561  0199                     	;# 
   562  019A                     	;# 
   563  019B                     	;# 
   564  019B                     	;# 
   565  019C                     	;# 
   566  019D                     	;# 
   567  019E                     	;# 
   568  019F                     	;# 
   569  020C                     	;# 
   570  020E                     	;# 
   571  028C                     	;# 
   572  028E                     	;# 
   573  030C                     	;# 
   574  030E                     	;# 
   575  038C                     	;# 
   576  038E                     	;# 
   577  0391                     	;# 
   578  0392                     	;# 
   579  0393                     	;# 
   580  0397                     	;# 
   581  0398                     	;# 
   582  0399                     	;# 
   583  0691                     	;# 
   584  0692                     	;# 
   585  0693                     	;# 
   586  0694                     	;# 
   587  0695                     	;# 
   588  0D8E                     	;# 
   589  0D8F                     	;# 
   590  0D90                     	;# 
   591  0D91                     	;# 
   592  0D91                     	;# 
   593  0D92                     	;# 
   594  0D93                     	;# 
   595  0D93                     	;# 
   596  0D94                     	;# 
   597  0D95                     	;# 
   598  0D95                     	;# 
   599  0D96                     	;# 
   600  0D97                     	;# 
   601  0D97                     	;# 
   602  0D98                     	;# 
   603  0D99                     	;# 
   604  0D99                     	;# 
   605  0D9A                     	;# 
   606  0D9B                     	;# 
   607  0D9C                     	;# 
   608  0D9C                     	;# 
   609  0D9D                     	;# 
   610  0D9D                     	;# 
   611  0D9E                     	;# 
   612  0D9F                     	;# 
   613  0DA0                     	;# 
   614  0DA1                     	;# 
   615  0DA1                     	;# 
   616  0DA2                     	;# 
   617  0DA3                     	;# 
   618  0DA3                     	;# 
   619  0DA4                     	;# 
   620  0DA5                     	;# 
   621  0DA5                     	;# 
   622  0DA6                     	;# 
   623  0DA7                     	;# 
   624  0DA7                     	;# 
   625  0DA8                     	;# 
   626  0DA9                     	;# 
   627  0DA9                     	;# 
   628  0DAA                     	;# 
   629  0DAB                     	;# 
   630  0DAC                     	;# 
   631  0DAC                     	;# 
   632  0DAD                     	;# 
   633  0DAD                     	;# 
   634  0DAE                     	;# 
   635  0DAF                     	;# 
   636  0DB0                     	;# 
   637  0DB1                     	;# 
   638  0DB1                     	;# 
   639  0DB2                     	;# 
   640  0DB3                     	;# 
   641  0DB3                     	;# 
   642  0DB4                     	;# 
   643  0DB5                     	;# 
   644  0DB5                     	;# 
   645  0DB6                     	;# 
   646  0DB7                     	;# 
   647  0DB7                     	;# 
   648  0DB8                     	;# 
   649  0DB9                     	;# 
   650  0DB9                     	;# 
   651  0DBA                     	;# 
   652  0DBB                     	;# 
   653  0DBC                     	;# 
   654  0DBC                     	;# 
   655  0DBD                     	;# 
   656  0DBD                     	;# 
   657  0DBE                     	;# 
   658  0DBF                     	;# 
   659  0DC0                     	;# 
   660  0DC1                     	;# 
   661  0DC1                     	;# 
   662  0DC2                     	;# 
   663  0DC3                     	;# 
   664  0DC3                     	;# 
   665  0DC4                     	;# 
   666  0DC5                     	;# 
   667  0DC5                     	;# 
   668  0DC6                     	;# 
   669  0DC7                     	;# 
   670  0DC7                     	;# 
   671  0DC8                     	;# 
   672  0DC9                     	;# 
   673  0DC9                     	;# 
   674  0DCA                     	;# 
   675  0DCB                     	;# 
   676  0DCC                     	;# 
   677  0DCC                     	;# 
   678  0DCD                     	;# 
   679  0DCD                     	;# 
   680  0DCE                     	;# 
   681  0DCF                     	;# 
   682  0DD0                     	;# 
   683  0E0F                     	;# 
   684  0E10                     	;# 
   685  0E11                     	;# 
   686  0E12                     	;# 
   687  0E13                     	;# 
   688  0E14                     	;# 
   689  0E15                     	;# 
   690  0E16                     	;# 
   691  0E17                     	;# 
   692  0E90                     	;# 
   693  0E91                     	;# 
   694  0E92                     	;# 
   695  0E94                     	;# 
   696  0E95                     	;# 
   697  0EA0                     	;# 
   698  0EA1                     	;# 
   699  0EA2                     	;# 
   700  0EA3                     	;# 
   701  0EA4                     	;# 
   702  0EA5                     	;# 
   703  0FE4                     	;# 
   704  0FE5                     	;# 
   705  0FE6                     	;# 
   706  0FE7                     	;# 
   707  0FE8                     	;# 
   708  0FE8                     	;# 
   709  0FE9                     	;# 
   710  0FEA                     	;# 
   711  0FEA                     	;# 
   712  0FEB                     	;# 
   713  0FED                     	;# 
   714  0FEE                     	;# 
   715  0FEE                     	;# 
   716  0FEF                     	;# 
   717  0000                     	;# 
   718  0001                     	;# 
   719  0002                     	;# 
   720  0003                     	;# 
   721  0004                     	;# 
   722  0005                     	;# 
   723  0006                     	;# 
   724  0007                     	;# 
   725  0008                     	;# 
   726  0009                     	;# 
   727  000A                     	;# 
   728  000B                     	;# 
   729  000C                     	;# 
   730  000E                     	;# 
   731  0011                     	;# 
   732  0012                     	;# 
   733  0013                     	;# 
   734  0015                     	;# 
   735  0016                     	;# 
   736  0016                     	;# 
   737  0017                     	;# 
   738  0018                     	;# 
   739  0019                     	;# 
   740  001A                     	;# 
   741  001B                     	;# 
   742  001C                     	;# 
   743  008C                     	;# 
   744  008E                     	;# 
   745  0091                     	;# 
   746  0092                     	;# 
   747  0093                     	;# 
   748  0095                     	;# 
   749  0096                     	;# 
   750  0097                     	;# 
   751  0098                     	;# 
   752  0099                     	;# 
   753  009A                     	;# 
   754  009B                     	;# 
   755  009B                     	;# 
   756  009C                     	;# 
   757  009D                     	;# 
   758  009E                     	;# 
   759  009F                     	;# 
   760  010C                     	;# 
   761  010E                     	;# 
   762  0111                     	;# 
   763  0112                     	;# 
   764  0113                     	;# 
   765  0114                     	;# 
   766  0115                     	;# 
   767  0116                     	;# 
   768  0117                     	;# 
   769  0118                     	;# 
   770  0119                     	;# 
   771  018C                     	;# 
   772  018E                     	;# 
   773  0191                     	;# 
   774  0191                     	;# 
   775  0192                     	;# 
   776  0193                     	;# 
   777  0193                     	;# 
   778  0194                     	;# 
   779  0195                     	;# 
   780  0196                     	;# 
   781  0197                     	;# 
   782  0199                     	;# 
   783  019A                     	;# 
   784  019B                     	;# 
   785  019B                     	;# 
   786  019C                     	;# 
   787  019D                     	;# 
   788  019E                     	;# 
   789  019F                     	;# 
   790  020C                     	;# 
   791  020E                     	;# 
   792  028C                     	;# 
   793  028E                     	;# 
   794  030C                     	;# 
   795  030E                     	;# 
   796  038C                     	;# 
   797  038E                     	;# 
   798  0391                     	;# 
   799  0392                     	;# 
   800  0393                     	;# 
   801  0397                     	;# 
   802  0398                     	;# 
   803  0399                     	;# 
   804  0691                     	;# 
   805  0692                     	;# 
   806  0693                     	;# 
   807  0694                     	;# 
   808  0695                     	;# 
   809  0D8E                     	;# 
   810  0D8F                     	;# 
   811  0D90                     	;# 
   812  0D91                     	;# 
   813  0D91                     	;# 
   814  0D92                     	;# 
   815  0D93                     	;# 
   816  0D93                     	;# 
   817  0D94                     	;# 
   818  0D95                     	;# 
   819  0D95                     	;# 
   820  0D96                     	;# 
   821  0D97                     	;# 
   822  0D97                     	;# 
   823  0D98                     	;# 
   824  0D99                     	;# 
   825  0D99                     	;# 
   826  0D9A                     	;# 
   827  0D9B                     	;# 
   828  0D9C                     	;# 
   829  0D9C                     	;# 
   830  0D9D                     	;# 
   831  0D9D                     	;# 
   832  0D9E                     	;# 
   833  0D9F                     	;# 
   834  0DA0                     	;# 
   835  0DA1                     	;# 
   836  0DA1                     	;# 
   837  0DA2                     	;# 
   838  0DA3                     	;# 
   839  0DA3                     	;# 
   840  0DA4                     	;# 
   841  0DA5                     	;# 
   842  0DA5                     	;# 
   843  0DA6                     	;# 
   844  0DA7                     	;# 
   845  0DA7                     	;# 
   846  0DA8                     	;# 
   847  0DA9                     	;# 
   848  0DA9                     	;# 
   849  0DAA                     	;# 
   850  0DAB                     	;# 
   851  0DAC                     	;# 
   852  0DAC                     	;# 
   853  0DAD                     	;# 
   854  0DAD                     	;# 
   855  0DAE                     	;# 
   856  0DAF                     	;# 
   857  0DB0                     	;# 
   858  0DB1                     	;# 
   859  0DB1                     	;# 
   860  0DB2                     	;# 
   861  0DB3                     	;# 
   862  0DB3                     	;# 
   863  0DB4                     	;# 
   864  0DB5                     	;# 
   865  0DB5                     	;# 
   866  0DB6                     	;# 
   867  0DB7                     	;# 
   868  0DB7                     	;# 
   869  0DB8                     	;# 
   870  0DB9                     	;# 
   871  0DB9                     	;# 
   872  0DBA                     	;# 
   873  0DBB                     	;# 
   874  0DBC                     	;# 
   875  0DBC                     	;# 
   876  0DBD                     	;# 
   877  0DBD                     	;# 
   878  0DBE                     	;# 
   879  0DBF                     	;# 
   880  0DC0                     	;# 
   881  0DC1                     	;# 
   882  0DC1                     	;# 
   883  0DC2                     	;# 
   884  0DC3                     	;# 
   885  0DC3                     	;# 
   886  0DC4                     	;# 
   887  0DC5                     	;# 
   888  0DC5                     	;# 
   889  0DC6                     	;# 
   890  0DC7                     	;# 
   891  0DC7                     	;# 
   892  0DC8                     	;# 
   893  0DC9                     	;# 
   894  0DC9                     	;# 
   895  0DCA                     	;# 
   896  0DCB                     	;# 
   897  0DCC                     	;# 
   898  0DCC                     	;# 
   899  0DCD                     	;# 
   900  0DCD                     	;# 
   901  0DCE                     	;# 
   902  0DCF                     	;# 
   903  0DD0                     	;# 
   904  0E0F                     	;# 
   905  0E10                     	;# 
   906  0E11                     	;# 
   907  0E12                     	;# 
   908  0E13                     	;# 
   909  0E14                     	;# 
   910  0E15                     	;# 
   911  0E16                     	;# 
   912  0E17                     	;# 
   913  0E90                     	;# 
   914  0E91                     	;# 
   915  0E92                     	;# 
   916  0E94                     	;# 
   917  0E95                     	;# 
   918  0EA0                     	;# 
   919  0EA1                     	;# 
   920  0EA2                     	;# 
   921  0EA3                     	;# 
   922  0EA4                     	;# 
   923  0EA5                     	;# 
   924  0FE4                     	;# 
   925  0FE5                     	;# 
   926  0FE6                     	;# 
   927  0FE7                     	;# 
   928  0FE8                     	;# 
   929  0FE8                     	;# 
   930  0FE9                     	;# 
   931  0FEA                     	;# 
   932  0FEA                     	;# 
   933  0FEB                     	;# 
   934  0FED                     	;# 
   935  0FEE                     	;# 
   936  0FEE                     	;# 
   937  0FEF                     	;# 
   938                           
   939                           	psect	idataCOMMON
   940  0000                     __pidataCOMMON:	
   941                           
   942                           	psect	idataBANK0
   943  0000                     __pidataBANK0:	
   944                           
   945                           	psect	stringtext
   946  00E9                     __pstringtext:	
   947  00E9                     _PWM:	
   948  00E9  3400               	retlw	0
   949  00EA  3400               	retlw	0
   950  00EB  3446               	retlw	70
   951  00EC  3400               	retlw	0
   952  00ED  3446               	retlw	70
   953  00EE  3400               	retlw	0
   954  00EF  3446               	retlw	70
   955  00F0  3400               	retlw	0
   956  00F1  3446               	retlw	70
   957  00F2  3400               	retlw	0
   958  00F3  3446               	retlw	70
   959  00F4  3400               	retlw	0
   960  00F5  3446               	retlw	70
   961  00F6  3400               	retlw	0
   962  00F7  3448               	retlw	72
   963  00F8  3400               	retlw	0
   964  00F9  3448               	retlw	72
   965  00FA  3400               	retlw	0
   966  00FB  3448               	retlw	72
   967  00FC  3400               	retlw	0
   968  00FD  3448               	retlw	72
   969  00FE  3400               	retlw	0
   970  00FF  3449               	retlw	73
   971  0100  3400               	retlw	0
   972  0101  3449               	retlw	73
   973  0102  3400               	retlw	0
   974  0103  3449               	retlw	73
   975  0104  3400               	retlw	0
   976  0105  344A               	retlw	74
   977  0106  3400               	retlw	0
   978  0107  344A               	retlw	74
   979  0108  3400               	retlw	0
   980  0109  344C               	retlw	76
   981  010A  3400               	retlw	0
   982  010B  344D               	retlw	77
   983  010C  3400               	retlw	0
   984  010D  344D               	retlw	77
   985  010E  3400               	retlw	0
   986  010F  344E               	retlw	78
   987  0110  3400               	retlw	0
   988  0111  3450               	retlw	80
   989  0112  3400               	retlw	0
   990  0113  3452               	retlw	82
   991  0114  3400               	retlw	0
   992  0115  3453               	retlw	83
   993  0116  3400               	retlw	0
   994  0117  3454               	retlw	84
   995  0118  3400               	retlw	0
   996  0119  3456               	retlw	86
   997  011A  3400               	retlw	0
   998  011B  3458               	retlw	88
   999  011C  3400               	retlw	0
  1000  011D  345A               	retlw	90
  1001  011E  3400               	retlw	0
  1002  011F  345C               	retlw	92
  1003  0120  3400               	retlw	0
  1004  0121  345E               	retlw	94
  1005  0122  3400               	retlw	0
  1006  0123  3460               	retlw	96
  1007  0124  3400               	retlw	0
  1008  0125  3462               	retlw	98
  1009  0126  3400               	retlw	0
  1010  0127  3464               	retlw	100
  1011  0128  3400               	retlw	0
  1012  0129  3467               	retlw	103
  1013  012A  3400               	retlw	0
  1014  012B  346A               	retlw	106
  1015  012C  3400               	retlw	0
  1016  012D  346C               	retlw	108
  1017  012E  3400               	retlw	0
  1018  012F  346F               	retlw	111
  1019  0130  3400               	retlw	0
  1020  0131  3472               	retlw	114
  1021  0132  3400               	retlw	0
  1022  0133  3476               	retlw	118
  1023  0134  3400               	retlw	0
  1024  0135  347A               	retlw	122
  1025  0136  3400               	retlw	0
  1026  0137  347C               	retlw	124
  1027  0138  3400               	retlw	0
  1028  0139  3480               	retlw	128
  1029  013A  3400               	retlw	0
  1030  013B  3483               	retlw	131
  1031  013C  3400               	retlw	0
  1032  013D  3488               	retlw	136
  1033  013E  3400               	retlw	0
  1034  013F  348A               	retlw	138
  1035  0140  3400               	retlw	0
  1036  0141  348E               	retlw	142
  1037  0142  3400               	retlw	0
  1038  0143  3492               	retlw	146
  1039  0144  3400               	retlw	0
  1040  0145  3498               	retlw	152
  1041  0146  3400               	retlw	0
  1042  0147  349E               	retlw	158
  1043  0148  3400               	retlw	0
  1044  0149  34A4               	retlw	164
  1045  014A  3400               	retlw	0
  1046  014B  34AC               	retlw	172
  1047  014C  3400               	retlw	0
  1048  014D  34B4               	retlw	180
  1049  014E  3400               	retlw	0
  1050  014F  34BC               	retlw	188
  1051  0150  3400               	retlw	0
  1052  0151  34C0               	retlw	192
  1053  0152  3400               	retlw	0
  1054  0153  34C8               	retlw	200
  1055  0154  3400               	retlw	0
  1056  0155  34D0               	retlw	208
  1057  0156  3400               	retlw	0
  1058  0157  34DE               	retlw	222
  1059  0158  3400               	retlw	0
  1060  0159  34E4               	retlw	228
  1061  015A  3400               	retlw	0
  1062  015B  34EC               	retlw	236
  1063  015C  3400               	retlw	0
  1064  015D  34F6               	retlw	246
  1065  015E  3400               	retlw	0
  1066  015F  3406               	retlw	6
  1067  0160  3401               	retlw	1
  1068  0161  340E               	retlw	14
  1069  0162  3401               	retlw	1
  1070  0163  3416               	retlw	22
  1071  0164  3401               	retlw	1
  1072  0165  341E               	retlw	30
  1073  0166  3401               	retlw	1
  1074  0167  342C               	retlw	44
  1075  0168  3401               	retlw	1
  1076  0169  3434               	retlw	52
  1077  016A  3401               	retlw	1
  1078  016B  343C               	retlw	60
  1079  016C  3401               	retlw	1
  1080  016D  3446               	retlw	70
  1081  016E  3401               	retlw	1
  1082  016F  3456               	retlw	86
  1083  0170  3401               	retlw	1
  1084  0171  3460               	retlw	96
  1085  0172  3401               	retlw	1
  1086  0173  3468               	retlw	104
  1087  0174  3401               	retlw	1
  1088  0175  3476               	retlw	118
  1089  0176  3401               	retlw	1
  1090  0177  3482               	retlw	130
  1091  0178  3401               	retlw	1
  1092  0179  348A               	retlw	138
  1093  017A  3401               	retlw	1
  1094  017B  3496               	retlw	150
  1095  017C  3401               	retlw	1
  1096  017D  34A6               	retlw	166
  1097  017E  3401               	retlw	1
  1098  017F  34B2               	retlw	178
  1099  0180  3401               	retlw	1
  1100  0181  34BE               	retlw	190
  1101  0182  3401               	retlw	1
  1102  0183  34CC               	retlw	204
  1103  0184  3401               	retlw	1
  1104  0185  34D8               	retlw	216
  1105  0186  3401               	retlw	1
  1106  0187  34E4               	retlw	228
  1107  0188  3401               	retlw	1
  1108  0189  34F6               	retlw	246
  1109  018A  3401               	retlw	1
  1110  018B  3402               	retlw	2
  1111  018C  3402               	retlw	2
  1112  018D  340E               	retlw	14
  1113  018E  3402               	retlw	2
  1114  018F  3420               	retlw	32
  1115  0190  3402               	retlw	2
  1116  0191  3430               	retlw	48
  1117  0192  3402               	retlw	2
  1118  0193  3440               	retlw	64
  1119  0194  3402               	retlw	2
  1120  0195  344C               	retlw	76
  1121  0196  3402               	retlw	2
  1122  0197  3462               	retlw	98
  1123  0198  3402               	retlw	2
  1124  0199  3470               	retlw	112
  1125  019A  3402               	retlw	2
  1126  019B  3480               	retlw	128
  1127  019C  3402               	retlw	2
  1128  019D  3492               	retlw	146
  1129  019E  3402               	retlw	2
  1130  019F  34A2               	retlw	162
  1131  01A0  3402               	retlw	2
  1132  01A1  34B6               	retlw	182
  1133  01A2  3402               	retlw	2
  1134  01A3  34C6               	retlw	198
  1135  01A4  3402               	retlw	2
  1136  01A5  34D6               	retlw	214
  1137  01A6  3402               	retlw	2
  1138  01A7  34EA               	retlw	234
  1139  01A8  3402               	retlw	2
  1140  01A9  3400               	retlw	0
  1141  01AA  3403               	retlw	3
  1142  01AB  341C               	retlw	28
  1143  01AC  3403               	retlw	3
  1144  01AD  3426               	retlw	38
  1145  01AE  3403               	retlw	3
  1146  01AF  3436               	retlw	54
  1147  01B0  3403               	retlw	3
  1148  01B1  3448               	retlw	72
  1149  01B2  3403               	retlw	3
  1150  01B3  3460               	retlw	96
  1151  01B4  3403               	retlw	3
  1152  01B5  3476               	retlw	118
  1153  01B6  3403               	retlw	3
  1154  01B7  3486               	retlw	134
  1155  01B8  3403               	retlw	3
  1156  01B9  349E               	retlw	158
  1157  01BA  3403               	retlw	3
  1158  01BB  34B0               	retlw	176
  1159  01BC  3403               	retlw	3
  1160  01BD  34C8               	retlw	200
  1161  01BE  3403               	retlw	3
  1162  01BF  34DC               	retlw	220
  1163  01C0  3403               	retlw	3
  1164  01C1  34F4               	retlw	244
  1165  01C2  3403               	retlw	3
  1166  01C3  3406               	retlw	6
  1167  01C4  3404               	retlw	4
  1168  01C5  341C               	retlw	28
  1169  01C6  3404               	retlw	4
  1170  01C7  343A               	retlw	58
  1171  01C8  3404               	retlw	4
  1172  01C9  344C               	retlw	76
  1173  01CA  3404               	retlw	4
  1174  01CB  3468               	retlw	104
  1175  01CC  3404               	retlw	4
  1176  01CD  347E               	retlw	126
  1177  01CE  3404               	retlw	4
  1178  01CF  3496               	retlw	150
  1179  01D0  3404               	retlw	4
  1180  01D1  34B2               	retlw	178
  1181  01D2  3404               	retlw	4
  1182  01D3  34C8               	retlw	200
  1183  01D4  3404               	retlw	4
  1184  01D5  34E0               	retlw	224
  1185  01D6  3404               	retlw	4
  1186  01D7  34F8               	retlw	248
  1187  01D8  3404               	retlw	4
  1188  01D9  3414               	retlw	20
  1189  01DA  3405               	retlw	5
  1190  01DB  3430               	retlw	48
  1191  01DC  3405               	retlw	5
  1192  01DD  344C               	retlw	76
  1193  01DE  3405               	retlw	5
  1194  01DF  3466               	retlw	102
  1195  01E0  3405               	retlw	5
  1196  01E1  3480               	retlw	128
  1197  01E2  3405               	retlw	5
  1198  01E3  349C               	retlw	156
  1199  01E4  3405               	retlw	5
  1200  01E5  34B8               	retlw	184
  1201  01E6  3405               	retlw	5
  1202  01E7  34D8               	retlw	216
  1203  01E8  3405               	retlw	5
  1204  01E9  34F4               	retlw	244
  1205  01EA  3405               	retlw	5
  1206  01EB  340E               	retlw	14
  1207  01EC  3406               	retlw	6
  1208  01ED  3428               	retlw	40
  1209  01EE  3406               	retlw	6
  1210  01EF  3448               	retlw	72
  1211  01F0  3406               	retlw	6
  1212  01F1  3468               	retlw	104
  1213  01F2  3406               	retlw	6
  1214  01F3  3488               	retlw	136
  1215  01F4  3406               	retlw	6
  1216  01F5  34A4               	retlw	164
  1217  01F6  3406               	retlw	6
  1218  01F7  34C4               	retlw	196
  1219  01F8  3406               	retlw	6
  1220  01F9  34DC               	retlw	220
  1221  01FA  3406               	retlw	6
  1222  01FB  3404               	retlw	4
  1223  01FC  3407               	retlw	7
  1224  01FD  3424               	retlw	36
  1225  01FE  3407               	retlw	7
  1226  01FF  3440               	retlw	64
  1227  0200  3407               	retlw	7
  1228  0201  3464               	retlw	100
  1229  0202  3407               	retlw	7
  1230  0203  3484               	retlw	132
  1231  0204  3407               	retlw	7
  1232  0205  34A4               	retlw	164
  1233  0206  3407               	retlw	7
  1234  0207  34C8               	retlw	200
  1235  0208  3407               	retlw	7
  1236  0209  34EC               	retlw	236
  1237  020A  3407               	retlw	7
  1238  020B  3410               	retlw	16
  1239  020C  3408               	retlw	8
  1240  020D  3430               	retlw	48
  1241  020E  3408               	retlw	8
  1242  020F  3450               	retlw	80
  1243  0210  3408               	retlw	8
  1244  0211  3470               	retlw	112
  1245  0212  3408               	retlw	8
  1246  0213  3498               	retlw	152
  1247  0214  3408               	retlw	8
  1248  0215  34C0               	retlw	192
  1249  0216  3408               	retlw	8
  1250  0217  34E8               	retlw	232
  1251  0218  3408               	retlw	8
  1252  0219  3408               	retlw	8
  1253  021A  3409               	retlw	9
  1254  021B  3430               	retlw	48
  1255  021C  3409               	retlw	9
  1256  021D  3458               	retlw	88
  1257  021E  3409               	retlw	9
  1258  021F  3480               	retlw	128
  1259  0220  3409               	retlw	9
  1260  0221  34A0               	retlw	160
  1261  0222  3409               	retlw	9
  1262  0223  34C8               	retlw	200
  1263  0224  3409               	retlw	9
  1264  0225  34F0               	retlw	240
  1265  0226  3409               	retlw	9
  1266  0227  3418               	retlw	24
  1267  0228  340A               	retlw	10
  1268  0229  3440               	retlw	64
  1269  022A  340A               	retlw	10
  1270  022B  3468               	retlw	104
  1271  022C  340A               	retlw	10
  1272  022D  3494               	retlw	148
  1273  022E  340A               	retlw	10
  1274  022F  34BC               	retlw	188
  1275  0230  340A               	retlw	10
  1276  0231  34E4               	retlw	228
  1277  0232  340A               	retlw	10
  1278  0233  3410               	retlw	16
  1279  0234  340B               	retlw	11
  1280  0235  3438               	retlw	56
  1281  0236  340B               	retlw	11
  1282  0237  3460               	retlw	96
  1283  0238  340B               	retlw	11
  1284  0239  348C               	retlw	140
  1285  023A  340B               	retlw	11
  1286  023B  34B4               	retlw	180
  1287  023C  340B               	retlw	11
  1288  023D  34E8               	retlw	232
  1289  023E  340B               	retlw	11
  1290  023F  3416               	retlw	22
  1291  0240  340C               	retlw	12
  1292  0241  3440               	retlw	64
  1293  0242  340C               	retlw	12
  1294  0243  346C               	retlw	108
  1295  0244  340C               	retlw	12
  1296  0245  3498               	retlw	152
  1297  0246  340C               	retlw	12
  1298  0247  34CC               	retlw	204
  1299  0248  340C               	retlw	12
  1300  0249  34FC               	retlw	252
  1301  024A  340C               	retlw	12
  1302  024B  3428               	retlw	40
  1303  024C  340D               	retlw	13
  1304  024D  3458               	retlw	88
  1305  024E  340D               	retlw	13
  1306  024F  3488               	retlw	136
  1307  0250  340D               	retlw	13
  1308  0251  34B8               	retlw	184
  1309  0252  340D               	retlw	13
  1310  0253  34E8               	retlw	232
  1311  0254  340D               	retlw	13
  1312  0255  3418               	retlw	24
  1313  0256  340E               	retlw	14
  1314  0257  3448               	retlw	72
  1315  0258  340E               	retlw	14
  1316  0259  3478               	retlw	120
  1317  025A  340E               	retlw	14
  1318  025B  34A8               	retlw	168
  1319  025C  340E               	retlw	14
  1320  025D  34E0               	retlw	224
  1321  025E  340E               	retlw	14
  1322  025F  3410               	retlw	16
  1323  0260  340F               	retlw	15
  1324  0261  3448               	retlw	72
  1325  0262  340F               	retlw	15
  1326  0263  347C               	retlw	124
  1327  0264  340F               	retlw	15
  1328  0265  34B0               	retlw	176
  1329  0266  340F               	retlw	15
  1330  0267  34E4               	retlw	228
  1331  0268  340F               	retlw	15
  1332  0269  3418               	retlw	24
  1333  026A  3410               	retlw	16
  1334  026B  3450               	retlw	80
  1335  026C  3410               	retlw	16
  1336  026D  3488               	retlw	136
  1337  026E  3410               	retlw	16
  1338  026F  34BC               	retlw	188
  1339  0270  3410               	retlw	16
  1340  0271  34F4               	retlw	244
  1341  0272  3410               	retlw	16
  1342  0273  342C               	retlw	44
  1343  0274  3411               	retlw	17
  1344  0275  3464               	retlw	100
  1345  0276  3411               	retlw	17
  1346  0277  3498               	retlw	152
  1347  0278  3411               	retlw	17
  1348  0279  34D0               	retlw	208
  1349  027A  3411               	retlw	17
  1350  027B  340C               	retlw	12
  1351  027C  3412               	retlw	18
  1352  027D  3444               	retlw	68
  1353  027E  3412               	retlw	18
  1354  027F  347C               	retlw	124
  1355  0280  3412               	retlw	18
  1356  0281  34B4               	retlw	180
  1357  0282  3412               	retlw	18
  1358  0283  34F0               	retlw	240
  1359  0284  3412               	retlw	18
  1360  0285  3428               	retlw	40
  1361  0286  3413               	retlw	19
  1362  0287  346C               	retlw	108
  1363  0288  3413               	retlw	19
  1364  0289  34A8               	retlw	168
  1365  028A  3413               	retlw	19
  1366  028B  34E4               	retlw	228
  1367  028C  3413               	retlw	19
  1368  028D  3420               	retlw	32
  1369  028E  3414               	retlw	20
  1370  028F  345C               	retlw	92
  1371  0290  3414               	retlw	20
  1372  0291  349C               	retlw	156
  1373  0292  3414               	retlw	20
  1374  0293  34DC               	retlw	220
  1375  0294  3414               	retlw	20
  1376  0295  3418               	retlw	24
  1377  0296  3415               	retlw	21
  1378  0297  3458               	retlw	88
  1379  0298  3415               	retlw	21
  1380  0299  349C               	retlw	156
  1381  029A  3415               	retlw	21
  1382  029B  34DC               	retlw	220
  1383  029C  3415               	retlw	21
  1384  029D  341C               	retlw	28
  1385  029E  3416               	retlw	22
  1386  029F  345C               	retlw	92
  1387  02A0  3416               	retlw	22
  1388  02A1  349C               	retlw	156
  1389  02A2  3416               	retlw	22
  1390  02A3  34E0               	retlw	224
  1391  02A4  3416               	retlw	22
  1392  02A5  3428               	retlw	40
  1393  02A6  3417               	retlw	23
  1394  02A7  3468               	retlw	104
  1395  02A8  3417               	retlw	23
  1396  02A9  34A8               	retlw	168
  1397  02AA  3417               	retlw	23
  1398  02AB  34F0               	retlw	240
  1399  02AC  3417               	retlw	23
  1400  02AD  3438               	retlw	56
  1401  02AE  3418               	retlw	24
  1402  02AF  3478               	retlw	120
  1403  02B0  3418               	retlw	24
  1404  02B1  34C0               	retlw	192
  1405  02B2  3418               	retlw	24
  1406  02B3  3404               	retlw	4
  1407  02B4  3419               	retlw	25
  1408  02B5  3448               	retlw	72
  1409  02B6  3419               	retlw	25
  1410  02B7  3498               	retlw	152
  1411  02B8  3419               	retlw	25
  1412  02B9  34E0               	retlw	224
  1413  02BA  3419               	retlw	25
  1414  02BB  3428               	retlw	40
  1415  02BC  341A               	retlw	26
  1416  02BD  3470               	retlw	112
  1417  02BE  341A               	retlw	26
  1418  02BF  34B8               	retlw	184
  1419  02C0  341A               	retlw	26
  1420  02C1  3400               	retlw	0
  1421  02C2  341B               	retlw	27
  1422  02C3  3448               	retlw	72
  1423  02C4  341B               	retlw	27
  1424  02C5  3490               	retlw	144
  1425  02C6  341B               	retlw	27
  1426  02C7  34E0               	retlw	224
  1427  02C8  341B               	retlw	27
  1428  02C9  3430               	retlw	48
  1429  02CA  341C               	retlw	28
  1430  02CB  3480               	retlw	128
  1431  02CC  341C               	retlw	28
  1432  02CD  34C8               	retlw	200
  1433  02CE  341C               	retlw	28
  1434  02CF  3418               	retlw	24
  1435  02D0  341D               	retlw	29
  1436  02D1  3468               	retlw	104
  1437  02D2  341D               	retlw	29
  1438  02D3  3480               	retlw	128
  1439  02D4  341D               	retlw	29
  1440  02D5  34B8               	retlw	184
  1441  02D6  341D               	retlw	29
  1442  02D7  3408               	retlw	8
  1443  02D8  341E               	retlw	30
  1444  02D9  3450               	retlw	80
  1445  02DA  341E               	retlw	30
  1446  02DB  34A0               	retlw	160
  1447  02DC  341E               	retlw	30
  1448  02DD  34E8               	retlw	232
  1449  02DE  341E               	retlw	30
  1450  02DF  3430               	retlw	48
  1451  02E0  341F               	retlw	31
  1452  02E1  3478               	retlw	120
  1453  02E2  341F               	retlw	31
  1454  02E3  34C0               	retlw	192
  1455  02E4  341F               	retlw	31
  1456  02E5  34E8               	retlw	232
  1457  02E6  341F               	retlw	31
  1458  02E7  34FF               	retlw	255
  1459  02E8  341F               	retlw	31
  1460  02E9                     __end_of_PWM:	
  1461  0016                     _TMR1	set	22
  1462  0018                     _T1CON	set	24
  1463  000B                     _INTCON	set	11
  1464  001C                     _T2CON	set	28
  1465  001B                     _PR2	set	27
  1466  0088                     _TMR1IF	set	136
  1467  0073                     _RC3	set	115
  1468  008D                     _RCIF	set	141
  1469  0098                     _OSCTUNE	set	152
  1470  0099                     _OSCCON	set	153
  1471  0488                     _TMR1IE	set	1160
  1472  048D                     _RCIE	set	1165
  1473  0475                     _TRISC5	set	1141
  1474  0473                     _TRISC3	set	1139
  1475  0472                     _TRISC2	set	1138
  1476  0471                     _TRISC1	set	1137
  1477  0470                     _TRISC0	set	1136
  1478  0462                     _TRISA2	set	1122
  1479  0199                     _RCREG	set	409
  1480  019B                     _SPBRGL	set	411
  1481  019C                     _SPBRGH	set	412
  1482  019F                     _BAUDCON	set	415
  1483  019D                     _RCSTA	set	413
  1484  0CEA                     _FERR	set	3306
  1485  0CF2                     _BRGH	set	3314
  1486  0CF4                     _SYNC	set	3316
  1487  0C73                     _ANSC3	set	3187
  1488  0C72                     _ANSC2	set	3186
  1489  0C71                     _ANSC1	set	3185
  1490  0C70                     _ANSC0	set	3184
  1491  0C62                     _ANSA2	set	3170
  1492  0DC3                     _PWM4DC	set	3523
  1493  0DB3                     _PWM3DC	set	3507
  1494  0DA3                     _PWM2DC	set	3491
  1495  0D93                     _PWM1DC	set	3475
  1496  0DCF                     _PWM4LDCON	set	3535
  1497  0DBF                     _PWM3LDCON	set	3519
  1498  0DAF                     _PWM2LDCON	set	3503
  1499  0D9F                     _PWM1LDCON	set	3487
  1500  0DCE                     _PWM4CLKCON	set	3534
  1501  0DBE                     _PWM3CLKCON	set	3518
  1502  0DAE                     _PWM2CLKCON	set	3502
  1503  0D9E                     _PWM1CLKCON	set	3486
  1504  0DC5                     _PWM4PRL	set	3525
  1505  0DB5                     _PWM3PRL	set	3509
  1506  0DA5                     _PWM2PRL	set	3493
  1507  0D95                     _PWM1PRL	set	3477
  1508  0DC6                     _PWM4PRH	set	3526
  1509  0DB6                     _PWM3PRH	set	3510
  1510  0DA6                     _PWM2PRH	set	3494
  1511  0D96                     _PWM1PRH	set	3478
  1512  0DC1                     _PWM4PHL	set	3521
  1513  0DB1                     _PWM3PHL	set	3505
  1514  0DA1                     _PWM2PHL	set	3489
  1515  0D91                     _PWM1PHL	set	3473
  1516  0DC2                     _PWM4PHH	set	3522
  1517  0DB2                     _PWM3PHH	set	3506
  1518  0DA2                     _PWM2PHH	set	3490
  1519  0D92                     _PWM1PHH	set	3474
  1520  0DC3                     _PWM4DCL	set	3523
  1521  0DB3                     _PWM3DCL	set	3507
  1522  0DA3                     _PWM2DCL	set	3491
  1523  0D93                     _PWM1DCL	set	3475
  1524  0DC4                     _PWM4DCH	set	3524
  1525  0DB4                     _PWM3DCH	set	3508
  1526  0DA4                     _PWM2DCH	set	3492
  1527  0D94                     _PWM1DCH	set	3476
  1528  0DCB                     _PWM4CON	set	3531
  1529  0DBB                     _PWM3CON	set	3515
  1530  0DAB                     _PWM2CON	set	3499
  1531  0D9B                     _PWM1CON	set	3483
  1532  0E15                     _RXPPS	set	3605
  1533  0EA2                     _RC2PPS	set	3746
  1534  0EA1                     _RC1PPS	set	3745
  1535  0EA0                     _RC0PPS	set	3744
  1536  0E92                     _RA2PPS	set	3730
  1537                           
  1538                           ; #config settings
  1539  0000                     
  1540                           	psect	cinit
  1541  000C                     start_initialization:	
  1542  000C                     __initialization:	
  1543                           
  1544                           ;initializer for _DMX_Address
  1545  000C  3001               	movlw	1
  1546  000D  00FA               	movwf	__pdataCOMMON& (0+127)
  1547  000E  30CC               	movlw	204
  1548  000F  01FB               	clrf	(__pdataCOMMON+1)& (0+127)
  1549                           
  1550                           ;initializer for _RDM_StartCode
  1551  0010  00B3               	movwf	__pdataBANK0& (0+127)
  1552  0011  3020               	movlw	low __pbssBANK0
  1553                           
  1554                           ; Clear objects allocated to COMMON
  1555  0012  01F0               	clrf	__pbssCOMMON& (0+127)
  1556  0013  01F1               	clrf	(__pbssCOMMON+1)& (0+127)
  1557  0014  01F2               	clrf	(__pbssCOMMON+2)& (0+127)
  1558  0015  01F3               	clrf	(__pbssCOMMON+3)& (0+127)
  1559  0016  01F4               	clrf	(__pbssCOMMON+4)& (0+127)
  1560  0017  01F5               	clrf	(__pbssCOMMON+5)& (0+127)
  1561                           
  1562                           ; Clear objects allocated to BANK0
  1563  0018  0084               	movwf	4
  1564  0019  3000               	movlw	high __pbssBANK0
  1565  001A  0085               	movwf	5
  1566  001B  3011               	movlw	17
  1567  001C  3183  23BF  3180   	fcall	clear_ram0
  1568  001F                     end_of_initialization:	
  1569                           ;End of C runtime variable initialization code
  1570                           
  1571  001F                     __end_of__initialization:	
  1572  001F  107E               	bcf	126,0	;clear compiler interrupt flag (level 1)
  1573  0020  0020               	movlb	0
  1574  0021  2822               	ljmp	_main	;jump to C main() function
  1575  0022                     __pmaintext:	
  1576                           ; 1 bytes @ 0x2
  1577 ;;
  1578 ;;Main: autosize = 0, tempsize = 0, incstack = 0, save=0
  1579 ;;
  1580 ;; *************** function _main *****************
  1581 ;; Defined at:
  1582 ;;		line 25 in file "main.c"
  1583 ;; Parameters:    Size  Location     Type
  1584 ;;		None
  1585 ;; Auto vars:     Size  Location     Type
  1586 ;;		None
  1587 ;; Return value:  Size  Location     Type
  1588 ;;                  1    wreg      void 
  1589 ;; Registers used:
  1590 ;;		wreg, fsr0l, fsr0h, status,2, status,0, pclath, cstack
  1591 ;; Tracked objects:
  1592 ;;		On entry : B1F/0
  1593 ;;		On exit  : 4/0
  1594 ;;		Unchanged: 0/0
  1595 ;; Data sizes:     COMMON   BANK0   BANK1   BANK2   BANK3   BANK4   BANK5   BANK6
  1596 ;;      Params:         0       0       0       0       0       0       0       0
  1597 ;;      Locals:         0       0       0       0       0       0       0       0
  1598 ;;      Temps:          0       0       0       0       0       0       0       0
  1599 ;;      Totals:         0       0       0       0       0       0       0       0
  1600 ;;Total ram usage:        0 bytes
  1601 ;; Hardware stack levels required when called:    5
  1602 ;; This function calls:
  1603 ;;		_DMX_init
  1604 ;;		_DMX_loop
  1605 ;; This function is called by:
  1606 ;;		Startup code after reset
  1607 ;; This function uses a non-reentrant model
  1608 ;;
  1609                           
  1610                           
  1611                           ;psect for function _main
  1612  0022                     _main:	
  1613                           
  1614                           ;main.c: 26: PWM1CON = PWM2CON = PWM3CON = PWM4CON = 0b10000000;
  1615                           
  1616                           ;incstack = 0
  1617                           ; Regs used in _main: [wreg-fsr0h+status,2+status,0+pclath+cstack]
  1618  0022  3080               	movlw	128
  1619  0023  003B               	movlb	27	; select bank27
  1620  0024  00CB               	movwf	75	;volatile
  1621  0025  00BB               	movwf	59	;volatile
  1622  0026  00AB               	movwf	43	;volatile
  1623  0027  009B               	movwf	27	;volatile
  1624                           
  1625                           ;main.c: 27: PR2 = 0xFF;
  1626  0028  30FF               	movlw	255
  1627  0029  0020               	movlb	0	; select bank0
  1628  002A  009B               	movwf	27	;volatile
  1629                           
  1630                           ;main.c: 28: T2CON = 0b00000101;
  1631  002B  3005               	movlw	5
  1632  002C  009C               	movwf	28	;volatile
  1633                           
  1634                           ;main.c: 30: OSCCON = 0b11111000;
  1635  002D  30F8               	movlw	248
  1636  002E  0021               	movlb	1	; select bank1
  1637  002F  0099               	movwf	25	;volatile
  1638                           
  1639                           ;main.c: 31: OSCTUNE = 0b000000;
  1640  0030  0198               	clrf	24	;volatile
  1641                           
  1642                           ;main.c: 33: TRISA2 = TRISC0 = TRISC1 = TRISC2 = 0;
  1643  0031  110E               	bcf	14,2	;volatile
  1644  0032  108E               	bcf	14,1	;volatile
  1645  0033  100E               	bcf	14,0	;volatile
  1646  0034  110C               	bcf	12,2	;volatile
  1647                           
  1648                           ;main.c: 34: ANSA2 = ANSC0 = ANSC1 = ANSC2 = 0;
  1649  0035  0023               	movlb	3	; select bank3
  1650  0036  110E               	bcf	14,2	;volatile
  1651  0037  108E               	bcf	14,1	;volatile
  1652  0038  100E               	bcf	14,0	;volatile
  1653  0039  110C               	bcf	12,2	;volatile
  1654                           
  1655                           ;main.c: 36: RA2PPS = 0b0011;
  1656  003A  3003               	movlw	3
  1657  003B  003D               	movlb	29	; select bank29
  1658  003C  0092               	movwf	18	;volatile
  1659                           
  1660                           ;main.c: 37: RC0PPS = 0b0100;
  1661  003D  3004               	movlw	4
  1662  003E  00A0               	movwf	32	;volatile
  1663                           
  1664                           ;main.c: 38: RC1PPS = 0b0101;
  1665  003F  3005               	movlw	5
  1666  0040  00A1               	movwf	33	;volatile
  1667                           
  1668                           ;main.c: 39: RC2PPS = 0b0110;
  1669  0041  3006               	movlw	6
  1670  0042  00A2               	movwf	34	;volatile
  1671                           
  1672                           ;main.c: 41: PWM1DCH = 0x0F;
  1673  0043  300F               	movlw	15
  1674  0044  003B               	movlb	27	; select bank27
  1675  0045  0094               	movwf	20	;volatile
  1676                           
  1677                           ;main.c: 42: PWM2DCH = 0x0C;
  1678  0046  300C               	movlw	12
  1679  0047  00A4               	movwf	36	;volatile
  1680                           
  1681                           ;main.c: 43: PWM3DCH = 0x09;
  1682  0048  3009               	movlw	9
  1683  0049  00B4               	movwf	52	;volatile
  1684                           
  1685                           ;main.c: 44: PWM4DCH = 0x06;
  1686  004A  3006               	movlw	6
  1687  004B  00C4               	movwf	68	;volatile
  1688                           
  1689                           ;main.c: 46: PWM1DCL = 0xFF;
  1690  004C  30FF               	movlw	255
  1691  004D  0093               	movwf	19	;volatile
  1692                           
  1693                           ;main.c: 47: PWM2DCL = 0x7E;
  1694  004E  307E               	movlw	126
  1695  004F  00A3               	movwf	35	;volatile
  1696                           
  1697                           ;main.c: 48: PWM3DCL = 0x0D;
  1698  0050  300D               	movlw	13
  1699  0051  00B3               	movwf	51	;volatile
  1700                           
  1701                           ;main.c: 49: PWM4DCL = 0x9C;
  1702  0052  309C               	movlw	156
  1703  0053  00C3               	movwf	67	;volatile
  1704                           
  1705                           ;main.c: 51: PWM1PHH = PWM2PHH = PWM3PHH = PWM4PHH = 0x00;
  1706  0054  01C2               	clrf	66	;volatile
  1707  0055  01B2               	clrf	50	;volatile
  1708  0056  01A2               	clrf	34	;volatile
  1709  0057  0192               	clrf	18	;volatile
  1710                           
  1711                           ;main.c: 52: PWM1PHL = PWM2PHL = PWM3PHL = PWM4PHL = 0x00;
  1712  0058  01C1               	clrf	65	;volatile
  1713  0059  01B1               	clrf	49	;volatile
  1714  005A  01A1               	clrf	33	;volatile
  1715  005B  0191               	clrf	17	;volatile
  1716                           
  1717                           ;main.c: 53: PWM1PRH = PWM2PRH = PWM3PRH = PWM4PRH = 0x1F;
  1718  005C  301F               	movlw	31
  1719  005D  00C6               	movwf	70	;volatile
  1720  005E  00B6               	movwf	54	;volatile
  1721  005F  00A6               	movwf	38	;volatile
  1722  0060  0096               	movwf	22	;volatile
  1723                           
  1724                           ;main.c: 54: PWM1PRL = PWM2PRL = PWM3PRL = PWM4PRL = 0xFF;
  1725  0061  30FF               	movlw	255
  1726  0062  00C5               	movwf	69	;volatile
  1727  0063  00B5               	movwf	53	;volatile
  1728  0064  00A5               	movwf	37	;volatile
  1729  0065  0095               	movwf	21	;volatile
  1730                           
  1731                           ;main.c: 55: PWM1CLKCON = PWM2CLKCON = PWM3CLKCON = PWM4CLKCON = 0b00000000;
  1732  0066  01CE               	clrf	78	;volatile
  1733  0067  01BE               	clrf	62	;volatile
  1734  0068  01AE               	clrf	46	;volatile
  1735  0069  019E               	clrf	30	;volatile
  1736                           
  1737                           ;main.c: 58: TRISC3 = 0;
  1738  006A  0021               	movlb	1	; select bank1
  1739  006B  118E               	bcf	14,3	;volatile
  1740                           
  1741                           ;main.c: 59: ANSC3 = 0;
  1742  006C  0023               	movlb	3	; select bank3
  1743  006D  118E               	bcf	14,3	;volatile
  1744                           
  1745                           ;main.c: 60: INTCON = 0b11000000;
  1746  006E  30C0               	movlw	192
  1747  006F  008B               	movwf	11	;volatile
  1748                           
  1749                           ;main.c: 65: DMX_init();
  1750  0070  2075  3180         	fcall	_DMX_init
  1751  0072                     l1207:	
  1752                           
  1753                           ;main.c: 72: DMX_loop();
  1754  0072  2086  3180         	fcall	_DMX_loop
  1755  0074  2872               	goto	l1207
  1756  0075                     __end_of_main:	
  1757  0075                     __ptext2:	
  1758 ;; *************** function _DMX_init *****************
  1759 ;; Defined at:
  1760 ;;		line 150 in file "DMX.c"
  1761 ;; Parameters:    Size  Location     Type
  1762 ;;		None
  1763 ;; Auto vars:     Size  Location     Type
  1764 ;;		None
  1765 ;; Return value:  Size  Location     Type
  1766 ;;                  1    wreg      void 
  1767 ;; Registers used:
  1768 ;;		wreg, status,2, status,0, pclath, cstack
  1769 ;; Tracked objects:
  1770 ;;		On entry : B1F/3
  1771 ;;		On exit  : B1F/0
  1772 ;;		Unchanged: B00/0
  1773 ;; Data sizes:     COMMON   BANK0   BANK1   BANK2   BANK3   BANK4   BANK5   BANK6
  1774 ;;      Params:         0       0       0       0       0       0       0       0
  1775 ;;      Locals:         0       0       0       0       0       0       0       0
  1776 ;;      Temps:          0       0       0       0       0       0       0       0
  1777 ;;      Totals:         0       0       0       0       0       0       0       0
  1778 ;;Total ram usage:        0 bytes
  1779 ;; Hardware stack levels used:    1
  1780 ;; Hardware stack levels required when called:    4
  1781 ;; This function calls:
  1782 ;;		_timer1_init
  1783 ;; This function is called by:
  1784 ;;		_main
  1785 ;; This function uses a non-reentrant model
  1786 ;;
  1787                           
  1788                           
  1789                           ;psect for function _DMX_init
  1790  0075                     _DMX_init:	
  1791                           
  1792                           ;DMX.c: 152: RXPPS = 0b10101;
  1793                           
  1794                           ;incstack = 0
  1795                           ; Regs used in _DMX_init: [wreg+status,2+status,0+pclath+cstack]
  1796  0075  3015               	movlw	21
  1797  0076  003C               	movlb	28	; select bank28
  1798  0077  0095               	movwf	21	;volatile
  1799                           
  1800                           ;DMX.c: 153: TRISC5 = 1;
  1801  0078  0021               	movlb	1	; select bank1
  1802  0079  168E               	bsf	14,5	;volatile
  1803                           
  1804                           ;DMX.c: 155: RCSTA = 0b10010000;
  1805  007A  3090               	movlw	144
  1806  007B  0023               	movlb	3	; select bank3
  1807  007C  009D               	movwf	29	;volatile
  1808                           
  1809                           ;DMX.c: 156: SYNC = 0;
  1810  007D  121E               	bcf	30,4	;volatile
  1811                           
  1812                           ;DMX.c: 157: BAUDCON = 0b00000000;
  1813  007E  019F               	clrf	31	;volatile
  1814                           
  1815                           ;DMX.c: 158: BRGH = 1;
  1816  007F  151E               	bsf	30,2	;volatile
  1817                           
  1818                           ;DMX.c: 159: SPBRGH = 0x00;
  1819  0080  019C               	clrf	28	;volatile
  1820                           
  1821                           ;DMX.c: 160: SPBRGL = 0x3;
  1822  0081  3003               	movlw	3
  1823  0082  009B               	movwf	27	;volatile
  1824                           
  1825                           ;DMX.c: 161: RCIE = 1;
  1826  0083  0021               	movlb	1	; select bank1
  1827  0084  1691               	bsf	17,5	;volatile
  1828                           
  1829                           ;DMX.c: 167: timer1_init();
  1830  0085  28C4               	ljmp	l1123
  1831  0086                     __end_of_DMX_init:	
  1832  0086                     __ptext1:	
  1833 ;; *************** function _DMX_loop *****************
  1834 ;; Defined at:
  1835 ;;		line 171 in file "DMX.c"
  1836 ;; Parameters:    Size  Location     Type
  1837 ;;		None
  1838 ;; Auto vars:     Size  Location     Type
  1839 ;;		None
  1840 ;; Return value:  Size  Location     Type
  1841 ;;                  1    wreg      void 
  1842 ;; Registers used:
  1843 ;;		wreg, fsr0l, fsr0h, status,2, status,0, pclath
  1844 ;; Tracked objects:
  1845 ;;		On entry : 4/0
  1846 ;;		On exit  : 4/0
  1847 ;;		Unchanged: 0/0
  1848 ;; Data sizes:     COMMON   BANK0   BANK1   BANK2   BANK3   BANK4   BANK5   BANK6
  1849 ;;      Params:         0       0       0       0       0       0       0       0
  1850 ;;      Locals:         0       0       0       0       0       0       0       0
  1851 ;;      Temps:          0       2       0       0       0       0       0       0
  1852 ;;      Totals:         0       2       0       0       0       0       0       0
  1853 ;;Total ram usage:        2 bytes
  1854 ;; Hardware stack levels used:    1
  1855 ;; Hardware stack levels required when called:    3
  1856 ;; This function calls:
  1857 ;;		Nothing
  1858 ;; This function is called by:
  1859 ;;		_main
  1860 ;; This function uses a non-reentrant model
  1861 ;;
  1862                           
  1863                           
  1864                           ;psect for function _DMX_loop
  1865  0086                     _DMX_loop:	
  1866                           
  1867                           ;DMX.c: 172: if (DMX_Flags.RxNew == 1) {
  1868                           
  1869                           ;incstack = 0
  1870                           ; Regs used in _DMX_loop: [wreg-fsr0h+status,2+status,0+pclath]
  1871  0086  1C73               	btfss	_DMX_Flags,0	;volatile
  1872  0087  28B3               	goto	l1151
  1873                           
  1874                           ;DMX.c: 173: DMX_Flags.RxNew = 0;
  1875  0088  1073               	bcf	_DMX_Flags,0	;volatile
  1876                           
  1877                           ;DMX.c: 174: PWM1DCH = PWM.PWM[RxData[0]].DCH;
  1878  0089  0020               	movlb	0	; select bank0
  1879  008A  082D               	movf	_RxData,w	;volatile
  1880  008B  20C9  3180         	fcall	PL2	;call to abstracted procedure
  1881  008D  0094               	movwf	20	;volatile
  1882                           
  1883                           ;DMX.c: 175: PWM1DCL = PWM.PWM[RxData[0]].DCL;
  1884  008E  0020               	movlb	0	; select bank0
  1885  008F  082D               	movf	_RxData,w	;volatile
  1886  0090  20D6  3180         	fcall	PL4	;call to abstracted procedure
  1887  0092  0093               	movwf	19	;volatile
  1888                           
  1889                           ;DMX.c: 176: PWM2DCH = PWM.PWM[RxData[1]].DCH;
  1890  0093  0020               	movlb	0	; select bank0
  1891  0094  082E               	movf	_RxData+1,w	;volatile
  1892  0095  20C9  3180         	fcall	PL2	;call to abstracted procedure
  1893  0097  00A4               	movwf	36	;volatile
  1894                           
  1895                           ;DMX.c: 177: PWM2DCL = PWM.PWM[RxData[1]].DCL;
  1896  0098  0020               	movlb	0	; select bank0
  1897  0099  082E               	movf	_RxData+1,w	;volatile
  1898  009A  20D6  3180         	fcall	PL4	;call to abstracted procedure
  1899  009C  00A3               	movwf	35	;volatile
  1900                           
  1901                           ;DMX.c: 178: PWM3DCH = PWM.PWM[RxData[2]].DCH;
  1902  009D  0020               	movlb	0	; select bank0
  1903  009E  082F               	movf	_RxData+2,w	;volatile
  1904  009F  20C9  3180         	fcall	PL2	;call to abstracted procedure
  1905  00A1  00B4               	movwf	52	;volatile
  1906                           
  1907                           ;DMX.c: 179: PWM3DCL = PWM.PWM[RxData[2]].DCL;
  1908  00A2  0020               	movlb	0	; select bank0
  1909  00A3  082F               	movf	_RxData+2,w	;volatile
  1910  00A4  20D6  3180         	fcall	PL4	;call to abstracted procedure
  1911  00A6  00B3               	movwf	51	;volatile
  1912                           
  1913                           ;DMX.c: 180: PWM4DCH = PWM.PWM[RxData[3]].DCH;
  1914  00A7  0020               	movlb	0	; select bank0
  1915  00A8  0830               	movf	_RxData+3,w	;volatile
  1916  00A9  20C9  3180         	fcall	PL2	;call to abstracted procedure
  1917  00AB  00C4               	movwf	68	;volatile
  1918                           
  1919                           ;DMX.c: 181: PWM4DCL = PWM.PWM[RxData[3]].DCL;
  1920  00AC  0020               	movlb	0	; select bank0
  1921  00AD  0830               	movf	_RxData+3,w	;volatile
  1922  00AE  20D6  3180         	fcall	PL4	;call to abstracted procedure
  1923  00B0  00C3               	movwf	67	;volatile
  1924                           
  1925                           ;DMX.c: 182: PWM1LDCON = PWM2LDCON = PWM3LDCON = PWM4LDCON = 0b10000000;
  1926  00B1  20E3  3180         	fcall	PL6	;call to abstracted procedure
  1927  00B3                     l1151:	
  1928                           
  1929                           ;DMX.c: 183: }
  1930                           ;DMX.c: 185: if (Timer.MS) {
  1931  00B3  0020               	movlb	0	; select bank0
  1932  00B4  1C20               	btfss	_Timer,0	;volatile
  1933  00B5  0008               	return
  1934                           
  1935                           ;DMX.c: 186: Timer.MS = 0;
  1936  00B6  1020               	bcf	_Timer,0	;volatile
  1937                           
  1938                           ;DMX.c: 188: if (DMX_Flags.RxTimeout == 1) {
  1939  00B7  1DF3               	btfss	_DMX_Flags,3	;volatile
  1940  00B8  0008               	return
  1941                           
  1942                           ;DMX.c: 189: PWM1DC =PWM2DC =PWM3DC =PWM4DC = 0;
  1943  00B9  003B               	movlb	27	; select bank27
  1944  00BA  01C3               	clrf	67	;volatile
  1945  00BB  01C4               	clrf	68	;volatile
  1946  00BC  01B3               	clrf	51	;volatile
  1947  00BD  01B4               	clrf	52	;volatile
  1948  00BE  01A3               	clrf	35	;volatile
  1949  00BF  01A4               	clrf	36	;volatile
  1950  00C0  0193               	clrf	19	;volatile
  1951  00C1  0194               	clrf	20	;volatile
  1952                           
  1953                           ;DMX.c: 190: PWM1LDCON = PWM2LDCON = PWM3LDCON = PWM4LDCON = 0b10000000;
  1954  00C2  20E3               	fcall	PL6	;call to abstracted procedure
  1955  00C3  0008               	return
  1956  00C4                     __end_of_DMX_loop:	
  1957  00C4                     __ptext3:	
  1958 ;; *************** function _timer1_init *****************
  1959 ;; Defined at:
  1960 ;;		line 262 in file "DMX.c"
  1961 ;; Parameters:    Size  Location     Type
  1962 ;;		None
  1963 ;; Auto vars:     Size  Location     Type
  1964 ;;		None
  1965 ;; Return value:  Size  Location     Type
  1966 ;;                  1    wreg      void 
  1967 ;; Registers used:
  1968 ;;		wreg
  1969 ;; Tracked objects:
  1970 ;;		On entry : B1F/1
  1971 ;;		On exit  : B1F/0
  1972 ;;		Unchanged: B00/0
  1973 ;; Data sizes:     COMMON   BANK0   BANK1   BANK2   BANK3   BANK4   BANK5   BANK6
  1974 ;;      Params:         0       0       0       0       0       0       0       0
  1975 ;;      Locals:         0       0       0       0       0       0       0       0
  1976 ;;      Temps:          0       0       0       0       0       0       0       0
  1977 ;;      Totals:         0       0       0       0       0       0       0       0
  1978 ;;Total ram usage:        0 bytes
  1979 ;; Hardware stack levels used:    1
  1980 ;; Hardware stack levels required when called:    3
  1981 ;; This function calls:
  1982 ;;		Nothing
  1983 ;; This function is called by:
  1984 ;;		_DMX_init
  1985 ;; This function uses a non-reentrant model
  1986 ;;
  1987                           
  1988                           
  1989                           ;psect for function _timer1_init
  1990  00C4                     _timer1_init:	
  1991  00C4                     l1123:	
  1992                           ;incstack = 0
  1993                           ; Regs used in _timer1_init: [wreg]
  1994                           
  1995                           
  1996                           ;DMX.c: 263: TMR1IE=1;
  1997  00C4  1411               	bsf	17,0	;volatile
  1998                           
  1999                           ;DMX.c: 264: T1CON = 0b00100001;
  2000  00C5  3021               	movlw	33
  2001  00C6  0020               	movlb	0	; select bank0
  2002  00C7  0098               	movwf	24	;volatile
  2003  00C8  0008               	return
  2004  00C9                     __end_of_timer1_init:	
  2005  00C9                     PL2:	
  2006  00C9  00B1               	movwf	??_DMX_loop
  2007  00CA  30EA               	movlw	low ((_PWM+1)| (0+32768))
  2008  00CB  01B2               	clrf	??_DMX_loop+1
  2009  00CC  35B1               	lslf	??_DMX_loop,f
  2010  00CD  0DB2               	rlf	??_DMX_loop+1,f
  2011  00CE  0731               	addwf	??_DMX_loop,w
  2012  00CF  0084               	movwf	4
  2013  00D0  3080               	movlw	high ((_PWM+1)| (0+32768))
  2014  00D1  3D32               	addwfc	??_DMX_loop+1,w
  2015  00D2  0085               	movwf	5
  2016  00D3  0800               	movf	0,w	;code access
  2017  00D4  003B               	movlb	27	; select bank27
  2018  00D5  0008               	return
  2019  00D6                     __end_ofPL2:	
  2020  00D6                     PL4:	
  2021  00D6  00B1               	movwf	??_DMX_loop
  2022  00D7  30E9               	movlw	low (_PWM| (0+32768))
  2023  00D8  01B2               	clrf	??_DMX_loop+1
  2024  00D9  35B1               	lslf	??_DMX_loop,f
  2025  00DA  0DB2               	rlf	??_DMX_loop+1,f
  2026  00DB  0731               	addwf	??_DMX_loop,w
  2027  00DC  0084               	movwf	4
  2028  00DD  3080               	movlw	high (_PWM| (0+32768))
  2029  00DE  3D32               	addwfc	??_DMX_loop+1,w
  2030  00DF  0085               	movwf	5
  2031  00E0  0800               	movf	0,w	;code access
  2032  00E1  003B               	movlb	27	; select bank27
  2033  00E2  0008               	return
  2034  00E3                     __end_ofPL4:	
  2035  00E3                     PL6:	
  2036  00E3  3080               	movlw	128
  2037  00E4  00CF               	movwf	79	;volatile
  2038  00E5  00BF               	movwf	63	;volatile
  2039  00E6  00AF               	movwf	47	;volatile
  2040  00E7  009F               	movwf	31	;volatile
  2041  00E8  0008               	return
  2042  00E9                     __end_ofPL6:	
  2043                           
  2044                           	psect	bssCOMMON
  2045  0070                     __pbssCOMMON:	
  2046  0070                     _RxAddrCount:	
  2047  0070                     	ds	2
  2048  0072                     _TimerState:	
  2049  0072                     	ds	1
  2050  0073                     _DMX_Flags:	
  2051  0073                     	ds	1
  2052  0074                     _RxState:	
  2053  0074                     	ds	1
  2054  0075                     _DMX_StartCode:	
  2055  0075                     	ds	1
  2056                           
  2057                           	psect	dataCOMMON
  2058  007A                     __pdataCOMMON:	
  2059  007A                     _DMX_Address:	
  2060  007A                     	ds	2
  2061                           
  2062                           	psect	bssBANK0
  2063  0020                     __pbssBANK0:	
  2064  0020                     _Timer:	
  2065  0020                     	ds	6
  2066  0026                     _RxTimer:	
  2067  0026                     	ds	2
  2068  0028                     _i:	
  2069  0028                     	ds	2
  2070  002A                     _ADC_Flags:	
  2071  002A                     	ds	1
  2072  002B                     _ADC_Data:	
  2073  002B                     	ds	1
  2074  002C                     _RxDataPtr:	
  2075  002C                     	ds	1
  2076  002D                     _RxData:	
  2077  002D                     	ds	4
  2078                           
  2079                           	psect	dataBANK0
  2080  0033                     __pdataBANK0:	
  2081  0033                     _RDM_StartCode:	
  2082  0033                     	ds	1
  2083                           
  2084                           	psect	clrtext
  2085  03BF                     clear_ram0:	
  2086                           ;	Called with FSR0 containing the base address, and
  2087                           ;	WREG with the size to clear
  2088                           
  2089  03BF  0064               	clrwdt	;clear the watchdog before getting into this loop
  2090  03C0                     clrloop0:	
  2091  03C0  0180               	clrf	0	;clear RAM location pointed to by FSR
  2092  03C1  3101               	addfsr 0,1
  2093  03C2  0B89               	decfsz	9,f	;Have we reached the end of clearing yet?
  2094  03C3  2BC0               	goto	clrloop0	;have we reached the end yet?
  2095  03C4  3400               	retlw	0	;all done for this memory range, return
  2096                           
  2097                           	psect	cstackCOMMON
  2098  0076                     __pcstackCOMMON:	
  2099  0076                     ?_DMX_init:	
  2100  0076                     ?_DMX_loop:	
  2101                           ; 1 bytes @ 0x0
  2102                           
  2103  0076                     ??_DMX_interrput:	
  2104                           ; 1 bytes @ 0x0
  2105                           
  2106  0076                     ?_timer1_init:	
  2107                           ; 1 bytes @ 0x0
  2108                           
  2109  0076                     ?_timer1_interrupt:	
  2110                           ; 1 bytes @ 0x0
  2111                           
  2112  0076                     ??_timer1_interrupt:	
  2113                           ; 1 bytes @ 0x0
  2114                           
  2115  0076                     ?_main:	
  2116                           ; 1 bytes @ 0x0
  2117                           
  2118  0076                     ?_isr:	
  2119                           ; 1 bytes @ 0x0
  2120                           
  2121  0076                     ?_DMX_interrput:	
  2122                           ; 1 bytes @ 0x0
  2123                           
  2124                           
  2125                           ; 2 bytes @ 0x0
  2126  0076                     	ds	3
  2127  0079                     DMX_interrput@RxDat:	
  2128                           
  2129                           ; 1 bytes @ 0x3
  2130  0079                     	ds	1
  2131  007A                     ??_isr:	
  2132                           
  2133                           	psect	cstackBANK0
  2134  0031                     __pcstackBANK0:	
  2135                           ; 1 bytes @ 0x4
  2136                           
  2137  0031                     ??_DMX_init:	
  2138  0031                     ??_DMX_loop:	
  2139                           ; 1 bytes @ 0x0
  2140                           
  2141  0031                     ??_timer1_init:	
  2142                           ; 1 bytes @ 0x0
  2143                           
  2144                           
  2145                           ; 1 bytes @ 0x0
  2146  0031                     	ds	2
  2147  0033                     ??_main:	
  2148                           
  2149                           	psect	intentry
  2150  0004                     __pintentry:	
  2151 ;; *************** function _isr *****************
  2152 ;; Defined at:
  2153 ;;		line 78 in file "main.c"
  2154 ;; Parameters:    Size  Location     Type
  2155 ;;		None
  2156 ;; Auto vars:     Size  Location     Type
  2157 ;;		None
  2158 ;; Return value:  Size  Location     Type
  2159 ;;                  1    wreg      void 
  2160 ;; Registers used:
  2161 ;;		wreg, fsr0l, fsr0h, fsr1l, fsr1h, status,2, status,0, pclath, cstack
  2162 ;; Tracked objects:
  2163 ;;		On entry : 0/0
  2164 ;;		On exit  : 0/0
  2165 ;;		Unchanged: 0/0
  2166 ;; Data sizes:     COMMON   BANK0   BANK1   BANK2   BANK3   BANK4   BANK5   BANK6
  2167 ;;      Params:         0       0       0       0       0       0       0       0
  2168 ;;      Locals:         0       0       0       0       0       0       0       0
  2169 ;;      Temps:          0       0       0       0       0       0       0       0
  2170 ;;      Totals:         0       0       0       0       0       0       0       0
  2171 ;;Total ram usage:        0 bytes
  2172 ;; Hardware stack levels used:    1
  2173 ;; Hardware stack levels required when called:    2
  2174 ;; This function calls:
  2175 ;;		_DMX_interrput
  2176 ;; This function is called by:
  2177 ;;		Interrupt level 1
  2178 ;; This function uses a non-reentrant model
  2179 ;;
  2180                           
  2181  0004                     _isr:	
  2182                           
  2183                           ;incstack = 0
  2184  0004  147E               	bsf	126,0	;set compiler interrupt flag (level 1)
  2185                           
  2186                           ; Regs used in _isr: [wreg-fsr1h+status,2+status,0+pclath+cstack]
  2187  0005  3180               	pagesel	$
  2188                           
  2189                           ;main.c: 82: DMX_interrput();
  2190  0006  3182  22E9         	fcall	_DMX_interrput
  2191  0008  107E               	bcf	126,0	;clear compiler interrupt flag (level 1)
  2192  0009  0009               	retfie
  2193  000A                     __end_of_isr:	
  2194                           
  2195                           	psect	text5
  2196  02E9                     __ptext5:	
  2197 ;; *************** function _DMX_interrput *****************
  2198 ;; Defined at:
  2199 ;;		line 197 in file "DMX.c"
  2200 ;; Parameters:    Size  Location     Type
  2201 ;;		None
  2202 ;; Auto vars:     Size  Location     Type
  2203 ;;  RxDat           1    3[COMMON] volatile unsigned char 
  2204 ;; Return value:  Size  Location     Type
  2205 ;;                  2  108[None  ] int 
  2206 ;; Registers used:
  2207 ;;		wreg, fsr0l, fsr0h, fsr1l, fsr1h, status,2, status,0, pclath, cstack
  2208 ;; Tracked objects:
  2209 ;;		On entry : 0/0
  2210 ;;		On exit  : 0/0
  2211 ;;		Unchanged: 0/0
  2212 ;; Data sizes:     COMMON   BANK0   BANK1   BANK2   BANK3   BANK4   BANK5   BANK6
  2213 ;;      Params:         0       0       0       0       0       0       0       0
  2214 ;;      Locals:         1       0       0       0       0       0       0       0
  2215 ;;      Temps:          3       0       0       0       0       0       0       0
  2216 ;;      Totals:         4       0       0       0       0       0       0       0
  2217 ;;Total ram usage:        4 bytes
  2218 ;; Hardware stack levels used:    1
  2219 ;; Hardware stack levels required when called:    1
  2220 ;; This function calls:
  2221 ;;		_timer1_interrupt
  2222 ;; This function is called by:
  2223 ;;		_isr
  2224 ;; This function uses a non-reentrant model
  2225 ;;
  2226                           
  2227                           
  2228                           ;psect for function _DMX_interrput
  2229  02E9                     _DMX_interrput:	
  2230                           
  2231                           ;DMX.c: 198: timer1_interrupt();
  2232                           
  2233                           ;incstack = 0
  2234                           ; Regs used in _DMX_interrput: [wreg-fsr1h+status,2+status,0+pclath+cstack]
  2235  02E9  237F  3182         	fcall	_timer1_interrupt
  2236                           
  2237                           ;DMX.c: 199: if (RCIE & RCIF) {
  2238  02EB  3001               	movlw	1
  2239  02EC  0021               	movlb	1	; select bank1
  2240  02ED  1E91               	btfss	17,5	;volatile
  2241  02EE  3900               	andlw	0
  2242  02EF  0020               	movlb	0	; select bank0
  2243  02F0  1E91               	btfss	17,5	;volatile
  2244  02F1  3900               	andlw	0
  2245  02F2  1C09               	btfss	9,0
  2246  02F3  0008               	return
  2247                           
  2248                           ;DMX.c: 200: RC3=~RC3;
  2249  02F4  3008               	movlw	8
  2250  02F5  068E               	xorwf	14,f
  2251                           
  2252                           ;DMX.c: 201: volatile char RxDat;
  2253                           ;DMX.c: 202: if (FERR)
  2254  02F6  0023               	movlb	3	; select bank3
  2255  02F7  1D1D               	btfss	29,2	;volatile
  2256  02F8  2B60               	goto	i1l1063
  2257                           
  2258                           ;DMX.c: 203: {
  2259                           ;DMX.c: 204: RxDat = RCREG;
  2260  02F9  0819               	movf	25,w	;volatile
  2261  02FA  00F9               	movwf	DMX_interrput@RxDat	;volatile
  2262                           
  2263                           ;DMX.c: 205: DMX_Flags.RxBreak = 1;
  2264  02FB  14F3               	bsf	_DMX_Flags,1	;volatile
  2265                           
  2266                           ;DMX.c: 206: RxState = WAIT_FOR_START;
  2267  02FC  3001               	movlw	1
  2268  02FD  00F4               	movwf	_RxState	;volatile
  2269                           
  2270                           ;DMX.c: 207: RxTimer = 0;
  2271  02FE  0020               	movlb	0	; select bank0
  2272  02FF  01A6               	clrf	_RxTimer	;volatile
  2273  0300  01A7               	clrf	_RxTimer+1	;volatile
  2274  0301  2B60               	goto	i1l1063
  2275  0302                     i1l1025:	
  2276                           
  2277                           ;DMX.c: 212: RxDat = RCREG;
  2278  0302  0023               	movlb	3	; select bank3
  2279  0303  0819               	movf	25,w	;volatile
  2280  0304  00F9               	movwf	DMX_interrput@RxDat	;volatile
  2281                           
  2282                           ;DMX.c: 213: break;
  2283  0305  2B6E               	goto	i1l1065
  2284  0306                     i1l238:	
  2285                           ;DMX.c: 214: case WAIT_FOR_START:
  2286                           
  2287                           
  2288                           ;DMX.c: 215: if (RCIF)
  2289  0306  0020               	movlb	0	; select bank0
  2290  0307  1E91               	btfss	17,5	;volatile
  2291  0308  2B6E               	goto	i1l1065
  2292                           
  2293                           ;DMX.c: 216: {
  2294                           ;DMX.c: 217: RxDat = RCREG;
  2295  0309  0023               	movlb	3	; select bank3
  2296  030A  0819               	movf	25,w	;volatile
  2297  030B  00F9               	movwf	DMX_interrput@RxDat	;volatile
  2298                           
  2299                           ;DMX.c: 218: if (RxDat == DMX_StartCode) {
  2300  030C  0879               	movf	DMX_interrput@RxDat,w	;volatile
  2301  030D  0675               	xorwf	_DMX_StartCode,w
  2302  030E  1D03               	skipz
  2303  030F  2B19               	goto	i1l1033
  2304                           
  2305                           ;DMX.c: 220: RxState = RX_DMX_READ_DATA;
  2306  0310  3002               	movlw	2
  2307  0311  00F4               	movwf	_RxState	;volatile
  2308                           
  2309                           ;DMX.c: 221: RxDataPtr = &RxData[0];
  2310  0312  302D               	movlw	(low (_RxData| 0))& (0+255)
  2311  0313  0020               	movlb	0	; select bank0
  2312  0314  00AC               	movwf	_RxDataPtr
  2313                           
  2314                           ;DMX.c: 222: RxAddrCount = 1;
  2315  0315  3001               	movlw	1
  2316  0316  00F0               	movwf	_RxAddrCount	;volatile
  2317  0317  01F1               	clrf	_RxAddrCount+1	;volatile
  2318  0318  2B22               	goto	i1l1037
  2319  0319                     i1l1033:	
  2320                           ;DMX.c: 224: } else if(RxDat == RDM_StartCode) {
  2321                           
  2322                           ;DMX.c: 223: DMX_Flags.RxStart = 1;
  2323                           
  2324  0319  0879               	movf	DMX_interrput@RxDat,w	;volatile
  2325  031A  0020               	movlb	0	; select bank0
  2326  031B  0633               	xorwf	_RDM_StartCode,w
  2327  031C  1D03               	skipz
  2328  031D  2B24               	goto	i1l1039
  2329                           
  2330                           ;DMX.c: 226: RxState = RX_RDM_READ_DATA;
  2331  031E  3003               	movlw	3
  2332  031F  00F4               	movwf	_RxState	;volatile
  2333                           
  2334                           ;DMX.c: 227: RxDataPtr = &RxData[0];
  2335  0320  302D               	movlw	(low (_RxData| 0))& (0+255)
  2336  0321  00AC               	movwf	_RxDataPtr
  2337  0322                     i1l1037:	
  2338                           
  2339                           ;DMX.c: 228: DMX_Flags.RxStart = 1;
  2340  0322  1573               	bsf	_DMX_Flags,2	;volatile
  2341                           
  2342                           ;DMX.c: 229: }else{
  2343  0323  2B6E               	goto	i1l1065
  2344  0324                     i1l1039:	
  2345                           
  2346                           ;DMX.c: 230: RxState = RX_WAIT_FOR_BREAK;
  2347  0324  01F4               	clrf	_RxState	;volatile
  2348  0325  2B6E               	goto	i1l1065
  2349  0326                     i1l1041:	
  2350                           
  2351                           ;DMX.c: 235: RxDat = RCREG;
  2352  0326  0023               	movlb	3	; select bank3
  2353  0327  0819               	movf	25,w	;volatile
  2354  0328  00F9               	movwf	DMX_interrput@RxDat	;volatile
  2355                           
  2356                           ;DMX.c: 236: if (RxAddrCount >= DMX_Address && (DMX_Address != 0))
  2357  0329  0871               	movf	_RxAddrCount+1,w	;volatile
  2358  032A  3A80               	xorlw	128
  2359  032B  00F6               	movwf	??_DMX_interrput
  2360  032C  087B               	movf	_DMX_Address+1,w
  2361  032D  3A80               	xorlw	128
  2362  032E  0276               	subwf	??_DMX_interrput,w
  2363  032F  1D03               	skipz
  2364  0330  2B33               	goto	u34_25
  2365  0331  087A               	movf	_DMX_Address,w
  2366  0332  0270               	subwf	_RxAddrCount,w	;volatile
  2367  0333                     u34_25:	
  2368  0333  1C03               	skipc
  2369  0334  2B40               	goto	i1l1049
  2370  0335  087A               	movf	_DMX_Address,w
  2371  0336  047B               	iorwf	_DMX_Address+1,w
  2372  0337  1903               	btfsc	3,2
  2373  0338  2B40               	goto	i1l1049
  2374                           
  2375                           ;DMX.c: 237: {
  2376                           ;DMX.c: 238: *RxDataPtr = RxDat;
  2377  0339  0020               	movlb	0	; select bank0
  2378  033A  082C               	movf	_RxDataPtr,w
  2379  033B  0086               	movwf	6
  2380  033C  0187               	clrf	7
  2381  033D  0879               	movf	DMX_interrput@RxDat,w	;volatile
  2382  033E  0081               	movwf	1
  2383                           
  2384                           ;DMX.c: 239: RxDataPtr++;
  2385  033F  0AAC               	incf	_RxDataPtr,f
  2386  0340                     i1l1049:	
  2387                           
  2388                           ;DMX.c: 240: }
  2389                           ;DMX.c: 241: RxAddrCount++;
  2390  0340  0AF0               	incf	_RxAddrCount,f	;volatile
  2391  0341  1903               	skipnz
  2392  0342  0AF1               	incf	_RxAddrCount+1,f	;volatile
  2393                           
  2394                           ;DMX.c: 243: if (RxAddrCount >= (DMX_Address + 4) && DMX_Address != 0) {
  2395  0343  087A               	movf	_DMX_Address,w
  2396  0344  3E04               	addlw	4
  2397  0345  00F6               	movwf	??_DMX_interrput
  2398  0346  3000               	movlw	0
  2399  0347  3D7B               	addwfc	_DMX_Address+1,w
  2400  0348  00F7               	movwf	??_DMX_interrput+1
  2401  0349  0871               	movf	_RxAddrCount+1,w	;volatile
  2402  034A  3A80               	xorlw	128
  2403  034B  00F8               	movwf	??_DMX_interrput+2
  2404  034C  0877               	movf	??_DMX_interrput+1,w
  2405  034D  3A80               	xorlw	128
  2406  034E  0278               	subwf	??_DMX_interrput+2,w
  2407  034F  1D03               	skipz
  2408  0350  2B53               	goto	u36_25
  2409  0351  0876               	movf	??_DMX_interrput,w
  2410  0352  0270               	subwf	_RxAddrCount,w	;volatile
  2411  0353                     u36_25:	
  2412  0353  1C03               	skipc
  2413  0354  2B6E               	goto	i1l1065
  2414  0355  087A               	movf	_DMX_Address,w
  2415  0356  047B               	iorwf	_DMX_Address+1,w
  2416  0357  1903               	btfsc	3,2
  2417  0358  2B6E               	goto	i1l1065
  2418                           
  2419                           ;DMX.c: 244: DMX_Flags.RxNew = 1;
  2420  0359  1473               	bsf	_DMX_Flags,0	;volatile
  2421                           
  2422                           ;DMX.c: 245: RxState = RX_WAIT_FOR_BREAK;
  2423  035A  01F4               	clrf	_RxState	;volatile
  2424                           
  2425                           ;DMX.c: 246: RxTimer = 0;
  2426  035B  0020               	movlb	0	; select bank0
  2427  035C  01A6               	clrf	_RxTimer	;volatile
  2428  035D  01A7               	clrf	_RxTimer+1	;volatile
  2429                           
  2430                           ;DMX.c: 247: DMX_Flags.RxTimeout = 0;
  2431  035E  11F3               	bcf	_DMX_Flags,3	;volatile
  2432  035F  2B6E               	goto	i1l1065
  2433  0360                     i1l1063:	
  2434  0360  0874               	movf	_RxState,w	;volatile
  2435                           
  2436                           ; Switch size 1, requested type "space"
  2437                           ; Number of cases is 4, Range of values is 0 to 3
  2438                           ; switch strategies available:
  2439                           ; Name         Instructions Cycles
  2440                           ; simple_byte           13     7 (average)
  2441                           ; direct_byte           14     6 (fixed)
  2442                           ; jumptable            260     6 (fixed)
  2443                           ;	Chosen strategy is simple_byte
  2444  0361  3A00               	xorlw	0	; case 0
  2445  0362  1903               	skipnz
  2446  0363  2B02               	goto	i1l1025
  2447  0364  3A01               	xorlw	1	; case 1
  2448  0365  1903               	skipnz
  2449  0366  2B06               	goto	i1l238
  2450  0367  3A03               	xorlw	3	; case 2
  2451  0368  1903               	skipnz
  2452  0369  2B26               	goto	i1l1041
  2453  036A  3A01               	xorlw	1	; case 3
  2454  036B  1903               	skipnz
  2455  036C  2B6E               	goto	i1l1065
  2456  036D  2B6E               	goto	i1l1065
  2457  036E                     i1l1065:	
  2458                           
  2459                           ;DMX.c: 254: if (RxTimer > 1200) {
  2460  036E  0020               	movlb	0	; select bank0
  2461  036F  0827               	movf	_RxTimer+1,w	;volatile
  2462  0370  3A80               	xorlw	128
  2463  0371  00F6               	movwf	??_DMX_interrput
  2464  0372  3084               	movlw	132
  2465  0373  0276               	subwf	??_DMX_interrput,w
  2466  0374  1D03               	skipz
  2467  0375  2B78               	goto	u38_25
  2468  0376  30B1               	movlw	177
  2469  0377  0226               	subwf	_RxTimer,w	;volatile
  2470  0378                     u38_25:	
  2471  0378  1C03               	skipc
  2472  0379  0008               	return
  2473                           
  2474                           ;DMX.c: 255: DMX_Flags.RxTimeout = 1;
  2475  037A  15F3               	bsf	_DMX_Flags,3	;volatile
  2476                           
  2477                           ;DMX.c: 256: RxTimer = 0;
  2478  037B  0020               	movlb	0	; select bank0
  2479  037C  01A6               	clrf	_RxTimer	;volatile
  2480  037D  01A7               	clrf	_RxTimer+1	;volatile
  2481  037E  0008               	return
  2482  037F                     __end_of_DMX_interrput:	
  2483  037F                     __ptext6:	
  2484 ;; *************** function _timer1_interrupt *****************
  2485 ;; Defined at:
  2486 ;;		line 268 in file "DMX.c"
  2487 ;; Parameters:    Size  Location     Type
  2488 ;;		None
  2489 ;; Auto vars:     Size  Location     Type
  2490 ;;		None
  2491 ;; Return value:  Size  Location     Type
  2492 ;;                  1    wreg      void 
  2493 ;; Registers used:
  2494 ;;		wreg, fsr0l, fsr0h, status,2, status,0
  2495 ;; Tracked objects:
  2496 ;;		On entry : 0/0
  2497 ;;		On exit  : 1E/0
  2498 ;;		Unchanged: 0/0
  2499 ;; Data sizes:     COMMON   BANK0   BANK1   BANK2   BANK3   BANK4   BANK5   BANK6
  2500 ;;      Params:         0       0       0       0       0       0       0       0
  2501 ;;      Locals:         0       0       0       0       0       0       0       0
  2502 ;;      Temps:          0       0       0       0       0       0       0       0
  2503 ;;      Totals:         0       0       0       0       0       0       0       0
  2504 ;;Total ram usage:        0 bytes
  2505 ;; Hardware stack levels used:    1
  2506 ;; This function calls:
  2507 ;;		Nothing
  2508 ;; This function is called by:
  2509 ;;		_DMX_interrput
  2510 ;; This function uses a non-reentrant model
  2511 ;;
  2512                           
  2513                           
  2514                           ;psect for function _timer1_interrupt
  2515  037F                     _timer1_interrupt:	
  2516                           
  2517                           ;DMX.c: 269: if (TMR1IE && TMR1IF) {
  2518                           
  2519                           ;incstack = 0
  2520                           ; Regs used in _timer1_interrupt: [wreg-fsr0h+status,2+status,0]
  2521  037F  0021               	movlb	1	; select bank1
  2522  0380  1C11               	btfss	17,0	;volatile
  2523  0381  0008               	return
  2524  0382  0020               	movlb	0	; select bank0
  2525  0383  1C11               	btfss	17,0	;volatile
  2526  0384  0008               	return
  2527                           
  2528                           ;DMX.c: 270: TMR1IF = 0;
  2529  0385  1011               	bcf	17,0	;volatile
  2530                           
  2531                           ;DMX.c: 271: switch (TimerState) {
  2532  0386  2BB9               	goto	i1l993
  2533  0387                     i1l953:	
  2534                           
  2535                           ;DMX.c: 273: TimerState = TIMER_1MS;
  2536  0387  01F2               	clrf	_TimerState	;volatile
  2537  0388                     i1l955:	
  2538                           
  2539                           ;DMX.c: 275: TMR1 = 0xFc17;
  2540  0388  30FC               	movlw	252
  2541  0389  0097               	movwf	23	;volatile
  2542  038A  3017               	movlw	23
  2543  038B  0096               	movwf	22	;volatile
  2544                           
  2545                           ;DMX.c: 277: RxTimer++;
  2546  038C  0AA6               	incf	_RxTimer,f	;volatile
  2547  038D  1903               	skipnz
  2548  038E  0AA7               	incf	_RxTimer+1,f	;volatile
  2549                           
  2550                           ;DMX.c: 278: if (RxTimer == 1200) {
  2551  038F  30B0               	movlw	176
  2552  0390  0626               	xorwf	_RxTimer,w	;volatile
  2553  0391  3004               	movlw	4
  2554  0392  1903               	skipnz
  2555  0393  0627               	xorwf	_RxTimer+1,w	;volatile
  2556  0394  1D03               	btfss	3,2
  2557  0395  2B9B               	goto	i1l965
  2558                           
  2559                           ;DMX.c: 279: RxTimer = 1200 + 1;
  2560  0396  30B1               	movlw	177
  2561  0397  00A6               	movwf	_RxTimer	;volatile
  2562  0398  3004               	movlw	4
  2563  0399  00A7               	movwf	_RxTimer+1	;volatile
  2564                           
  2565                           ;DMX.c: 280: DMX_Flags.RxTimeout = 1;
  2566  039A  15F3               	bsf	_DMX_Flags,3	;volatile
  2567  039B                     i1l965:	
  2568                           
  2569                           ;DMX.c: 281: }
  2570                           ;DMX.c: 284: Timer.MS_Count++;
  2571  039B  0AA1               	incf	_Timer+1,f	;volatile
  2572  039C  1903               	skipnz
  2573  039D  0AA2               	incf	_Timer+2,f	;volatile
  2574                           
  2575                           ;DMX.c: 285: Timer.MS = 1;
  2576  039E  1420               	bsf	_Timer,0	;volatile
  2577                           
  2578                           ;DMX.c: 286: if (Timer.MS_Count == 1000)
  2579  039F  30E8               	movlw	232
  2580  03A0  0621               	xorwf	_Timer+1,w	;volatile
  2581  03A1  3003               	movlw	3
  2582  03A2  1903               	skipnz
  2583  03A3  0622               	xorwf	_Timer+2,w	;volatile
  2584  03A4  1D03               	btfss	3,2
  2585  03A5  0008               	return
  2586                           
  2587                           ;DMX.c: 287: {
  2588                           ;DMX.c: 288: Timer.MS_Count = 0;
  2589  03A6  01A1               	clrf	_Timer+1	;volatile
  2590  03A7  01A2               	clrf	_Timer+2	;volatile
  2591                           
  2592                           ;DMX.c: 289: Timer.SEC_Count++;
  2593  03A8  0AA3               	incf	_Timer+3,f	;volatile
  2594                           
  2595                           ;DMX.c: 290: Timer.SEC = 1;
  2596  03A9  14A0               	bsf	_Timer,1	;volatile
  2597                           
  2598                           ;DMX.c: 291: if (Timer.SEC_Count == 60)
  2599  03AA  303C               	movlw	60
  2600  03AB  0623               	xorwf	_Timer+3,w	;volatile
  2601  03AC  1D03               	btfss	3,2
  2602  03AD  0008               	return
  2603                           
  2604                           ;DMX.c: 292: {
  2605                           ;DMX.c: 293: Timer.SEC_Count = 0;
  2606  03AE  01A3               	clrf	_Timer+3	;volatile
  2607                           
  2608                           ;DMX.c: 294: Timer.MIN_Count++;
  2609  03AF  0AA4               	incf	_Timer+4,f	;volatile
  2610                           
  2611                           ;DMX.c: 295: Timer.MIN = 1;
  2612  03B0  1520               	bsf	_Timer,2	;volatile
  2613                           
  2614                           ;DMX.c: 297: if (Timer.MIN_Count == 60)
  2615  03B1  303C               	movlw	60
  2616  03B2  0624               	xorwf	_Timer+4,w	;volatile
  2617  03B3  1D03               	btfss	3,2
  2618  03B4  0008               	return
  2619                           
  2620                           ;DMX.c: 298: {
  2621                           ;DMX.c: 299: Timer.MIN_Count = 0;
  2622  03B5  01A4               	clrf	_Timer+4	;volatile
  2623                           
  2624                           ;DMX.c: 300: Timer.HR_Count++;
  2625  03B6  0AA5               	incf	_Timer+5,f	;volatile
  2626                           
  2627                           ;DMX.c: 301: Timer.HR = 1;
  2628  03B7  15A0               	bsf	_Timer,3	;volatile
  2629  03B8  0008               	return
  2630  03B9                     i1l993:	
  2631  03B9  0872               	movf	_TimerState,w	;volatile
  2632                           
  2633                           ; Switch size 1, requested type "space"
  2634                           ; Number of cases is 1, Range of values is 0 to 0
  2635                           ; switch strategies available:
  2636                           ; Name         Instructions Cycles
  2637                           ; simple_byte            4     3 (average)
  2638                           ; direct_byte            8     6 (fixed)
  2639                           ; jumptable            260     6 (fixed)
  2640                           ;	Chosen strategy is simple_byte
  2641  03BA  3A00               	xorlw	0	; case 0
  2642  03BB  1903               	skipnz
  2643  03BC  2B88               	goto	i1l955
  2644  03BD  2B87               	goto	i1l953
  2645  03BE  0008               	return
  2646  03BF                     __end_of_timer1_interrupt:	
  2647  007E                     btemp	set	126	;btemp
  2648  007E                     int$flags	set	126
  2649  007E                     wtemp0	set	126


Data Sizes:
    Strings     0
    Constant    512
    Data        3
    BSS         23
    Persistent  0
    Stack       0

Auto Spaces:
    Space          Size  Autos    Used
    COMMON           14      4      12
    BANK0            80      2      20
    BANK1            80      0       0
    BANK2            80      0       0
    BANK3            80      0       0
    BANK4            80      0       0
    BANK5            80      0       0
    BANK6            16      0       0

Pointer List with Targets:

    RxArPtr	PTR volatile unsigned char  size(1) Largest target is 0
		 -> NULL(NULL[0]), 

    RxDataPtr	PTR volatile unsigned char  size(1) Largest target is 4
		 -> NULL(NULL[0]), RxData(BANK0[4]), 


Critical Paths under _main in COMMON

    None.

Critical Paths under _isr in COMMON

    _isr->_DMX_interrput

Critical Paths under _main in BANK0

    _main->_DMX_loop

Critical Paths under _isr in BANK0

    None.

Critical Paths under _main in BANK1

    None.

Critical Paths under _isr in BANK1

    None.

Critical Paths under _main in BANK2

    None.

Critical Paths under _isr in BANK2

    None.

Critical Paths under _main in BANK3

    None.

Critical Paths under _isr in BANK3

    None.

Critical Paths under _main in BANK4

    None.

Critical Paths under _isr in BANK4

    None.

Critical Paths under _main in BANK5

    None.

Critical Paths under _isr in BANK5

    None.

Critical Paths under _main in BANK6

    None.

Critical Paths under _isr in BANK6

    None.

Call Graph Tables:

 ---------------------------------------------------------------------------------
 (Depth) Function   	        Calls       Base Space   Used Autos Params    Refs
 ---------------------------------------------------------------------------------
 (0) _main                                                 0     0      0       0
                           _DMX_init
                           _DMX_loop
 ---------------------------------------------------------------------------------
 (1) _DMX_loop                                             2     2      0       0
                                              0 BANK0      2     2      0
 ---------------------------------------------------------------------------------
 (1) _DMX_init                                             0     0      0       0
                        _timer1_init
 ---------------------------------------------------------------------------------
 (2) _timer1_init                                          0     0      0       0
 ---------------------------------------------------------------------------------
 Estimated maximum stack depth 2
 ---------------------------------------------------------------------------------
 (Depth) Function   	        Calls       Base Space   Used Autos Params    Refs
 ---------------------------------------------------------------------------------
 (3) _isr                                                  0     0      0      70
                      _DMX_interrput
 ---------------------------------------------------------------------------------
 (4) _DMX_interrput                                        4     4      0      70
                                              0 COMMON     4     4      0
                   _timer1_interrupt
 ---------------------------------------------------------------------------------
 (5) _timer1_interrupt                                     0     0      0       0
 ---------------------------------------------------------------------------------
 Estimated maximum stack depth 5
 ---------------------------------------------------------------------------------

 Call Graph Graphs:

 _main (ROOT)
   _DMX_init
     _timer1_init
   _DMX_loop

 _isr (ROOT)
   _DMX_interrput
     _timer1_interrupt

 Address spaces:
Name               Size   Autos  Total    Cost      Usage
BIGRAM             1F0      0       0       0        0.0%
NULL                 0      0       0       0        0.0%
CODE                 0      0       0       0        0.0%
BITCOMMON            E      0       0       1        0.0%
BITSFR0              0      0       0       1        0.0%
SFR0                 0      0       0       1        0.0%
COMMON               E      4       C       2       85.7%
BITSFR1              0      0       0       2        0.0%
SFR1                 0      0       0       2        0.0%
BITSFR2              0      0       0       3        0.0%
SFR2                 0      0       0       3        0.0%
STACK                0      0       0       3        0.0%
BITSFR3              0      0       0       4        0.0%
SFR3                 0      0       0       4        0.0%
ABS                  0      0      20       4        0.0%
BITBANK0            50      0       0       5        0.0%
BITSFR4              0      0       0       5        0.0%
SFR4                 0      0       0       5        0.0%
BANK0               50      2      14       6       25.0%
BITSFR5              0      0       0       6        0.0%
SFR5                 0      0       0       6        0.0%
BITBANK1            50      0       0       7        0.0%
BITSFR6              0      0       0       7        0.0%
SFR6                 0      0       0       7        0.0%
BANK1               50      0       0       8        0.0%
BITSFR7              0      0       0       8        0.0%
SFR7                 0      0       0       8        0.0%
BITBANK2            50      0       0       9        0.0%
BITSFR8              0      0       0       9        0.0%
SFR8                 0      0       0       9        0.0%
BANK2               50      0       0      10        0.0%
BITSFR9              0      0       0      10        0.0%
SFR9                 0      0       0      10        0.0%
BITBANK3            50      0       0      11        0.0%
BITSFR10             0      0       0      11        0.0%
SFR10                0      0       0      11        0.0%
BANK3               50      0       0      12        0.0%
BITSFR11             0      0       0      12        0.0%
SFR11                0      0       0      12        0.0%
BITBANK4            50      0       0      13        0.0%
BITSFR12             0      0       0      13        0.0%
SFR12                0      0       0      13        0.0%
BANK4               50      0       0      14        0.0%
BITSFR13             0      0       0      14        0.0%
SFR13                0      0       0      14        0.0%
BITBANK5            50      0       0      15        0.0%
BITSFR14             0      0       0      15        0.0%
SFR14                0      0       0      15        0.0%
BANK5               50      0       0      16        0.0%
BITSFR15             0      0       0      16        0.0%
SFR15                0      0       0      16        0.0%
BITBANK6            10      0       0      17        0.0%
BITSFR16             0      0       0      17        0.0%
SFR16                0      0       0      17        0.0%
BANK6               10      0       0      18        0.0%
BITSFR17             0      0       0      18        0.0%
SFR17                0      0       0      18        0.0%
BITSFR18             0      0       0      19        0.0%
SFR18                0      0       0      19        0.0%
DATA                 0      0      20      19        0.0%
BITSFR19             0      0       0      20        0.0%
SFR19                0      0       0      20        0.0%
BITSFR20             0      0       0      21        0.0%
SFR20                0      0       0      21        0.0%
BITSFR21             0      0       0      22        0.0%
SFR21                0      0       0      22        0.0%
BITSFR22             0      0       0      23        0.0%
SFR22                0      0       0      23        0.0%
BITSFR23             0      0       0      24        0.0%
SFR23                0      0       0      24        0.0%
BITSFR24             0      0       0      25        0.0%
SFR24                0      0       0      25        0.0%
BITSFR25             0      0       0      26        0.0%
SFR25                0      0       0      26        0.0%
BITSFR26             0      0       0      27        0.0%
SFR26                0      0       0      27        0.0%
BITSFR27             0      0       0      28        0.0%
SFR27                0      0       0      28        0.0%
BITSFR28             0      0       0      29        0.0%
SFR28                0      0       0      29        0.0%
BITSFR29             0      0       0      30        0.0%
SFR29                0      0       0      30        0.0%
BITSFR30             0      0       0      31        0.0%
SFR30                0      0       0      31        0.0%
BITSFR31             0      0       0      32        0.0%
SFR31                0      0       0      32        0.0%


Microchip Technology PIC Macro Assembler V1.41 build -162212810 
Symbol Table                                                                                   Thu May 25 09:48:05 2017

                        _i 0028                __CFG_CP$OFF 0000                         PL2 00C9  
                       PL4 00D6                         PL6 00E3                        _RC3 0073  
                      _PR2 001B                        _PWM 00E9                        _isr 0004  
                      wreg 0009               __CFG_LVP$OFF 0000                       l1123 00C4  
                     l1151 00B3                       l1207 0072                       ?_isr 0076  
                     _BRGH 0CF2                       _FERR 0CEA                       _RCIE 048D  
                     _RCIF 008D                       _TMR1 0016                       _SYNC 0CF4  
             __CFG_WRT$OFF 0000                       _main 0022                       fsr0h 0005  
                     fsr1h 0007                       indf0 0000                       fsr0l 0004  
                     indf1 0001                       fsr1l 0006                       btemp 007E  
                     start 000A              __CFG_MCLRE$ON 0000                      ??_isr 007A  
            __CFG_PLLEN$ON 0000                      ?_main 0076              __CFG_WDTE$OFF 0000  
         __end_of_DMX_init 0086                      _ANSA2 0C62                      _ANSC0 0C70  
                    _ANSC1 0C71                      _ANSC2 0C72                      _ANSC3 0C73  
         __end_of_DMX_loop 00C4                      _T1CON 0018                      _T2CON 001C  
                    i1l238 0306                      i1l953 0387                      i1l955 0388  
                    i1l965 039B                      i1l993 03B9                      _RCREG 0199  
                    _RCSTA 019D                      u34_25 0333                      u36_25 0353  
                    u38_25 0378                      _RXPPS 0E15                      _Timer 0020  
           __CFG_BOREN$OFF 0000                      status 0003                      wtemp0 007E  
          __initialization 000C               __end_of_main 0075                     ??_main 0033  
                   _RA2PPS 0E92                     _RC0PPS 0EA0                     _RC1PPS 0EA1  
                   _RC2PPS 0EA2                     i1l1041 0326                     i1l1033 0319  
                   i1l1025 0302                     i1l1037 0322                     i1l1039 0324  
                   i1l1063 0360                     i1l1049 0340                     i1l1065 036E  
                   _INTCON 000B              _DMX_StartCode 0075                     _OSCCON 0099  
                   _PWM1DC 0D93                     _PWM2DC 0DA3                     _PWM3DC 0DB3  
   __size_of_DMX_interrput 0096                     _PWM4DC 0DC3                     _TMR1IE 0488  
                   _TMR1IF 0088                     _SPBRGH 019C                     _SPBRGL 019B  
                   _TRISA2 0462                     _TRISC0 0470                     _TRISC1 0471  
                   _TRISC2 0472                     _TRISC3 0473                     _TRISC5 0475  
           __CFG_PWRTE$OFF 0000                     _RxData 002D           _timer1_interrupt 037F  
           __CFG_STVREN$ON 0000               ?_timer1_init 0076                 _TimerState 0072  
             __pdataCOMMON 007A    __end_of__initialization 001F                  ?_DMX_init 0076  
                ?_DMX_loop 0076             __pcstackCOMMON 0076               __pidataBANK0 0000  
               __end_ofPL2 00D6                 __end_ofPL4 00E3                 __end_ofPL6 00E9  
            _DMX_interrput 02E9                 __pbssBANK0 0020                _RxAddrCount 0070  
               ??_DMX_init 0031                 ??_DMX_loop 0031                 __pmaintext 0022  
               __pintentry 0004             ?_DMX_interrput 0076                    _BAUDCON 019F  
                  _PWM1DCH 0D94                    _PWM1DCL 0D93                    _PWM2DCH 0DA4  
                  _PWM2DCL 0DA3                    _OSCTUNE 0098                    _PWM3DCH 0DB4  
                  _PWM3DCL 0DB3                    _PWM4DCH 0DC4                    _PWM1CON 0D9B  
                  _PWM4DCL 0DC3                    _PWM2CON 0DAB                    _PWM3CON 0DBB  
                  _PWM4CON 0DCB                    _PWM1PHH 0D92                    _PWM1PHL 0D91  
                  _PWM2PHH 0DA2                    _PWM2PHL 0DA1                    _PWM3PHH 0DB2  
                  _PWM3PHL 0DB1                    _PWM1PRH 0D96                    _PWM4PHH 0DC2  
                  _PWM1PRL 0D95                    _PWM4PHL 0DC1                    _PWM2PRH 0DA6  
                  _PWM2PRL 0DA5                    _PWM3PRH 0DB6                    _PWM3PRL 0DB5  
                  _PWM4PRH 0DC6                    _PWM4PRL 0DC5                  _ADC_Flags 002A  
                  _RxTimer 0026                    _RxState 0074       __size_of_timer1_init 0005  
                  __ptext1 0086                    __ptext2 0075                    __ptext3 00C4  
                  __ptext5 02E9                    __ptext6 037F               __size_of_isr 0006  
 __end_of_timer1_interrupt 03BF                    clrloop0 03C0       end_of_initialization 001F  
                _DMX_Flags 0073            ??_DMX_interrput 0076                  _PWM1LDCON 0D9F  
                _PWM2LDCON 0DAF                  _PWM3LDCON 0DBF                  _PWM4LDCON 0DCF  
             __pstringtext 00E9           __CFG_FOSC$INTOSC 0000          __size_of_DMX_init 0011  
        __size_of_DMX_loop 003E              __pidataCOMMON 0000        start_initialization 000C  
              __end_of_PWM 02E9                __end_of_isr 000A                  _RxDataPtr 002C  
         __CFG_LPBOREN$OFF 0000                __pdataBANK0 0033                __pbssCOMMON 0070  
                ___latbits 0001              __pcstackBANK0 0031              _RDM_StartCode 0033  
         __CFG_PPS1WAY$OFF 0000                   _ADC_Data 002B          ?_timer1_interrupt 0076  
       ??_timer1_interrupt 0076                  clear_ram0 03BF                   _DMX_init 0075  
                 _DMX_loop 0086         DMX_interrput@RxDat 0079              ??_timer1_init 0031  
              _DMX_Address 007A      __end_of_DMX_interrput 037F        __end_of_timer1_init 00C9  
            __size_of_main 0053                   int$flags 007E                   intlevel1 0000  
        __CFG_CLKOUTEN$OFF 0000                _timer1_init 00C4                 _PWM1CLKCON 0D9E  
               _PWM2CLKCON 0DAE                 _PWM3CLKCON 0DBE                 _PWM4CLKCON 0DCE  
__size_of_timer1_interrupt 0040  
